Certificate:
    Data:
        Version: 3 (0x2)
        Serial Number: 4104 (0x1008)
    Signature Algorithm: sha256WithRSAEncryption
        Issuer: C=91, ST=Hubei, L=Wuhan, O=HUST, OU=HUST, CN=yuanzhongsheng/emailAddress=2841329980@qq.com
        Validity
            Not Before: May 15 13:27:49 2023 GMT
            Not After : May 12 13:27:49 2033 GMT
        Subject: C=91, ST=Hubei, O=HUST, OU=HUST, CN=yuanzhongsheng/emailAddress=2841329980@qq.com
        Subject Public Key Info:
            Public Key Algorithm: rsaEncryption
                Public-Key: (2048 bit)
                Modulus:
                    00:b3:f6:90:d2:c7:e5:3a:ae:0e:23:4a:b2:e9:48:
                    9c:4d:63:ca:49:4f:02:c5:09:74:16:e1:af:c6:50:
                    f9:77:bb:3f:73:a0:76:b6:e6:56:69:27:2e:33:4d:
                    8a:1f:81:e7:7e:d6:c1:8c:b3:9a:98:16:91:65:4f:
                    13:01:d8:ee:c1:0e:ae:8d:9f:88:85:8f:49:c1:df:
                    8f:c5:91:7a:ce:ed:84:8e:3c:7b:f1:ff:49:e1:d3:
                    59:15:ee:64:a7:86:eb:72:76:8e:90:17:18:7a:f3:
                    70:a1:28:a1:0d:78:b9:05:74:7f:72:c3:3d:91:94:
                    5c:0e:51:7e:be:b0:11:f4:22:15:57:92:66:ad:89:
                    84:a1:54:3e:43:be:cb:e0:56:82:da:17:3d:21:bb:
                    24:88:62:ea:a5:a8:d9:4f:f3:da:e1:3a:fb:cf:80:
                    1f:4c:e9:b2:88:14:09:68:c0:bd:90:a9:34:8f:ff:
                    fc:e3:b5:b4:aa:01:f7:ab:2c:23:51:06:25:0f:64:
                    4f:08:8f:fd:48:c3:f1:7f:85:32:39:01:ca:be:30:
                    54:95:78:c5:63:68:23:44:7a:e6:3d:87:e9:3b:87:
                    ec:5e:ec:3b:51:77:ec:c7:6e:20:2d:d0:ef:f6:62:
                    8f:7c:9e:3f:44:ac:b1:84:be:14:6d:c1:41:43:fa:
                    2a:e3
                Exponent: 65537 (0x10001)
        X509v3 extensions:
            X509v3 Basic Constraints: 
                CA:FALSE
            Netscape Comment: 
                OpenSSL Generated Certificate
            X509v3 Subject Key Identifier: 
                B2:CE:16:64:17:B0:31:25:D7:34:95:EE:09:A1:2D:E0:1C:0C:EA:E4
            X509v3 Authority Key Identifier: 
                keyid:CD:8D:E1:FC:84:3F:81:40:99:2E:F3:61:BC:4F:A1:E2:8F:42:FA:3B

    Signature Algorithm: sha256WithRSAEncryption
         c7:2e:03:11:ff:b4:b4:91:d0:66:61:c3:1f:62:7b:3e:1c:ad:
         9f:69:33:3a:51:a7:14:35:90:98:67:55:32:ae:b0:45:9d:a6:
         4d:78:87:c9:bc:a1:8f:ab:23:d4:01:b4:41:95:4c:fd:51:11:
         e9:a6:68:5f:bf:1a:0a:f3:29:30:d0:bf:6f:81:00:33:3c:1a:
         35:99:90:36:5a:75:dd:ba:8a:b2:3a:96:53:d3:3a:a7:95:2a:
         c3:8c:de:77:1f:10:12:65:78:d2:c1:82:bc:04:f8:3d:a0:c9:
         68:f7:2b:27:7a:af:0d:83:54:c6:12:7e:be:e3:e1:7b:c2:ff:
         cb:cd:be:14:4a:23:2b:70:2f:91:a6:17:b4:6e:08:bd:ac:8b:
         ff:88:2f:f4:fb:2d:2f:48:22:58:3d:99:fe:84:cf:f7:a4:14:
         e1:1e:c0:9d:eb:22:7f:63:3e:d9:56:d7:2d:bf:88:b2:69:34:
         66:c7:1e:3d:f3:c1:2d:9d:2d:42:73:2c:c8:03:da:10:d4:18:
         62:a5:0c:f6:94:e7:8a:cb:5a:af:f6:cd:44:b4:12:2c:b7:56:
         7d:52:95:42:29:b8:7e:da:f9:1b:6b:9a:60:05:0c:61:07:73:
         28:cf:b6:55:14:74:c3:7f:2b:38:4a:dd:26:45:4b:ef:d6:5e:
         df:09:66:4a
-----BEGIN CERTIFICATE-----
MIID9DCCAtygAwIBAgICEAgwDQYJKoZIhvcNAQELBQAwgYYxCzAJBgNVBAYTAjkx
MQ4wDAYDVQQIDAVIdWJlaTEOMAwGA1UEBwwFV3VoYW4xDTALBgNVBAoMBEhVU1Qx
DTALBgNVBAsMBEhVU1QxFzAVBgNVBAMMDnl1YW56aG9uZ3NoZW5nMSAwHgYJKoZI
hvcNAQkBFhEyODQxMzI5OTgwQHFxLmNvbTAeFw0yMzA1MTUxMzI3NDlaFw0zMzA1
MTIxMzI3NDlaMHYxCzAJBgNVBAYTAjkxMQ4wDAYDVQQIDAVIdWJlaTENMAsGA1UE
CgwESFVTVDENMAsGA1UECwwESFVTVDEXMBUGA1UEAwwOeXVhbnpob25nc2hlbmcx
IDAeBgkqhkiG9w0BCQEWETI4NDEzMjk5ODBAcXEuY29tMIIBIjANBgkqhkiG9w0B
AQEFAAOCAQ8AMIIBCgKCAQEAs/aQ0sflOq4OI0qy6UicTWPKSU8CxQl0FuGvxlD5
d7s/c6B2tuZWaScuM02KH4HnftbBjLOamBaRZU8TAdjuwQ6ujZ+IhY9Jwd+PxZF6
zu2Ejjx78f9J4dNZFe5kp4brcnaOkBcYevNwoSihDXi5BXR/csM9kZRcDlF+vrAR
9CIVV5JmrYmEoVQ+Q77L4FaC2hc9IbskiGLqpajZT/Pa4Tr7z4AfTOmyiBQJaMC9
kKk0j//847W0qgH3qywjUQYlD2RPCI/9SMPxf4UyOQHKvjBUlXjFY2gjRHrmPYfp
O4fsXuw7UXfsx24gLdDv9mKPfJ4/RKyxhL4UbcFBQ/oq4wIDAQABo3sweTAJBgNV
HRMEAjAAMCwGCWCGSAGG+EIBDQQfFh1PcGVuU1NMIEdlbmVyYXRlZCBDZXJ0aWZp
Y2F0ZTAdBgNVHQ4EFgQUss4WZBewMSXXNJXuCaEt4BwM6uQwHwYDVR0jBBgwFoAU
zY3h/IQ/gUCZLvNhvE+h4o9C+jswDQYJKoZIhvcNAQELBQADggEBAMcuAxH/tLSR
0GZhwx9iez4crZ9pMzpRpxQ1kJhnVTKusEWdpk14h8m8oY+rI9QBtEGVTP1REemm
aF+/GgrzKTDQv2+BADM8GjWZkDZadd26irI6llPTOqeVKsOM3ncfEBJleNLBgrwE
+D2gyWj3Kyd6rw2DVMYSfr7j4XvC/8vNvhRKIytwL5GmF7RuCL2si/+IL/T7LS9I
Ilg9mf6Ez/ekFOEewJ3rIn9jPtlW1y2/iLJpNGbHHj3zwS2dLUJzLMgD2hDUGGKl
DPaU54rLWq/2zUS0Eiy3Vn1SlUIpuH7a+RtrmmAFDGEHcyjPtlUUdMN/KzhK3SZF
S+/WXt8JZko=
-----END CERTIFICATE-----
