Certificate:
    Data:
        Version: 3 (0x2)
        Serial Number: 4105 (0x1009)
    Signature Algorithm: sha256WithRSAEncryption
        Issuer: C=91, ST=Hubei, L=Wuhan, O=HUST, OU=HUST, CN=yuanzhongsheng/emailAddress=2841329980@qq.com
        Validity
            Not Before: May 15 13:29:36 2023 GMT
            Not After : May 12 13:29:36 2033 GMT
        Subject: C=91, ST=HUST, L=HUST, O=HUST, OU=HUST, CN=rebibabo/emailAddress=2841329980@qq.com
        Subject Public Key Info:
            Public Key Algorithm: rsaEncryption
                Public-Key: (2048 bit)
                Modulus:
                    00:c0:76:d1:35:7e:93:80:e4:9e:12:b6:93:84:0d:
                    59:67:cf:ef:bb:90:3b:be:e5:08:43:9f:76:31:2c:
                    83:66:93:b7:56:47:8a:a9:03:48:be:3e:b4:01:e5:
                    0b:a5:fa:7e:41:d8:b5:c8:2a:44:d0:87:98:2b:a2:
                    ca:c9:37:62:03:74:d0:fb:78:1c:45:ca:d6:fb:64:
                    b7:46:60:fb:8f:a3:a6:56:48:e6:f9:bf:ff:dc:4e:
                    7c:67:c3:f1:26:35:e0:a0:2f:e6:f1:32:85:5a:a1:
                    d5:4c:5d:8a:17:72:a6:70:84:a1:7d:e5:7f:01:97:
                    bd:79:ee:9b:60:2e:78:da:32:d0:7f:7c:fc:cc:9c:
                    6a:e7:e8:63:d6:58:fa:0e:09:0e:ab:f9:d6:ca:6e:
                    7d:66:53:7e:18:c4:01:7b:88:e7:84:fa:78:c6:42:
                    d0:68:0d:69:77:4e:e1:92:40:6c:ae:2d:7f:5e:6d:
                    1e:7d:fa:3c:f4:2d:ac:7f:0c:7a:85:3e:c6:c1:b2:
                    f8:6e:ef:7b:13:37:83:fc:7f:d1:7c:44:81:03:18:
                    4f:03:62:47:03:fa:0a:a8:cf:80:6e:9a:0b:20:8d:
                    ae:5d:e3:a6:34:78:91:1f:b3:db:f2:06:ef:4e:bf:
                    36:e4:76:01:7d:20:02:61:99:bd:5b:52:eb:4a:38:
                    38:11
                Exponent: 65537 (0x10001)
        X509v3 extensions:
            X509v3 Basic Constraints: 
                CA:FALSE
            Netscape Comment: 
                OpenSSL Generated Certificate
            X509v3 Subject Key Identifier: 
                7B:03:AB:5D:20:39:8E:D1:49:17:5C:34:9D:59:85:11:10:5D:3D:FA
            X509v3 Authority Key Identifier: 
                keyid:CD:8D:E1:FC:84:3F:81:40:99:2E:F3:61:BC:4F:A1:E2:8F:42:FA:3B

    Signature Algorithm: sha256WithRSAEncryption
         2b:a7:ab:08:fa:5c:02:bc:64:03:f0:ef:c8:e2:90:ec:03:22:
         98:40:75:8c:df:5e:b6:0c:cb:43:df:84:7e:34:35:fd:0e:d7:
         d2:a2:05:59:3a:bd:39:49:68:bf:17:c7:a5:cc:0c:ef:09:8f:
         b3:07:11:4c:c4:c2:ce:25:1a:c9:1f:1b:70:7a:19:b6:ce:29:
         a0:c7:44:67:8f:bd:b2:2d:ce:96:0e:fd:37:75:6a:2d:75:2d:
         19:7f:bb:d7:6e:c7:d6:b2:e5:18:f5:86:19:44:b6:24:52:d5:
         89:fb:15:49:6c:66:a8:1f:64:8a:2b:b8:f9:93:bc:3b:9e:33:
         a8:34:8a:6d:8b:00:d5:21:c2:2d:37:68:9d:3f:11:5d:cd:3d:
         e2:4c:3c:8d:ac:e6:f3:49:a5:9c:49:c2:34:7c:b0:4c:7f:cf:
         cf:7a:a8:4d:a6:54:24:a7:64:1d:98:af:81:2f:ab:42:9a:53:
         1d:66:0d:4e:73:c1:65:fb:a5:03:7b:2c:00:58:86:48:ba:1e:
         99:6a:30:27:8d:fc:10:6c:e3:89:48:05:85:22:f7:65:aa:65:
         b4:d1:f0:e9:79:2b:44:81:ee:2d:b1:f1:c3:53:bf:22:db:af:
         ff:63:d1:59:70:a5:fd:ac:d0:10:82:34:5e:db:fd:2b:23:71:
         e6:d7:00:ab
-----BEGIN CERTIFICATE-----
MIID/DCCAuSgAwIBAgICEAkwDQYJKoZIhvcNAQELBQAwgYYxCzAJBgNVBAYTAjkx
MQ4wDAYDVQQIDAVIdWJlaTEOMAwGA1UEBwwFV3VoYW4xDTALBgNVBAoMBEhVU1Qx
DTALBgNVBAsMBEhVU1QxFzAVBgNVBAMMDnl1YW56aG9uZ3NoZW5nMSAwHgYJKoZI
hvcNAQkBFhEyODQxMzI5OTgwQHFxLmNvbTAeFw0yMzA1MTUxMzI5MzZaFw0zMzA1
MTIxMzI5MzZaMH4xCzAJBgNVBAYTAjkxMQ0wCwYDVQQIDARIVVNUMQ0wCwYDVQQH
DARIVVNUMQ0wCwYDVQQKDARIVVNUMQ0wCwYDVQQLDARIVVNUMREwDwYDVQQDDAhy
ZWJpYmFibzEgMB4GCSqGSIb3DQEJARYRMjg0MTMyOTk4MEBxcS5jb20wggEiMA0G
CSqGSIb3DQEBAQUAA4IBDwAwggEKAoIBAQDAdtE1fpOA5J4StpOEDVlnz++7kDu+
5QhDn3YxLINmk7dWR4qpA0i+PrQB5Qul+n5B2LXIKkTQh5grosrJN2IDdND7eBxF
ytb7ZLdGYPuPo6ZWSOb5v//cTnxnw/EmNeCgL+bxMoVaodVMXYoXcqZwhKF95X8B
l7157ptgLnjaMtB/fPzMnGrn6GPWWPoOCQ6r+dbKbn1mU34YxAF7iOeE+njGQtBo
DWl3TuGSQGyuLX9ebR59+jz0Lax/DHqFPsbBsvhu73sTN4P8f9F8RIEDGE8DYkcD
+gqoz4Bumgsgja5d46Y0eJEfs9vyBu9OvzbkdgF9IAJhmb1bUutKODgRAgMBAAGj
ezB5MAkGA1UdEwQCMAAwLAYJYIZIAYb4QgENBB8WHU9wZW5TU0wgR2VuZXJhdGVk
IENlcnRpZmljYXRlMB0GA1UdDgQWBBR7A6tdIDmO0UkXXDSdWYUREF09+jAfBgNV
HSMEGDAWgBTNjeH8hD+BQJku82G8T6Hij0L6OzANBgkqhkiG9w0BAQsFAAOCAQEA
K6erCPpcArxkA/DvyOKQ7AMimEB1jN9etgzLQ9+EfjQ1/Q7X0qIFWTq9OUlovxfH
pcwM7wmPswcRTMTCziUayR8bcHoZts4poMdEZ4+9si3Olg79N3VqLXUtGX+7127H
1rLlGPWGGUS2JFLVifsVSWxmqB9kiiu4+ZO8O54zqDSKbYsA1SHCLTdonT8RXc09
4kw8jazm80mlnEnCNHywTH/Pz3qoTaZUJKdkHZivgS+rQppTHWYNTnPBZfulA3ss
AFiGSLoemWowJ438EGzjiUgFhSL3ZapltNHw6XkrRIHuLbHxw1O/Ituv/2PRWXCl
/azQEII0Xtv9KyNx5tcAqw==
-----END CERTIFICATE-----
