Certificate:
    Data:
        Version: 3 (0x2)
        Serial Number: 4106 (0x100a)
    Signature Algorithm: sha256WithRSAEncryption
        Issuer: C=91, ST=Hubei, L=Wuhan, O=HUST, OU=HUST, CN=yuanzhongsheng/emailAddress=2841329980@qq.com
        Validity
            Not Before: May 15 13:45:11 2023 GMT
            Not After : May 12 13:45:11 2033 GMT
        Subject: C=91, ST=Hubei, L=Wuhan, O=HUST, OU=CSE, CN=yuanzhongsheng/emailAddress=2841329980@qq.com
        Subject Public Key Info:
            Public Key Algorithm: rsaEncryption
                Public-Key: (2048 bit)
                Modulus:
                    00:b4:e6:e2:7c:4a:52:61:af:df:51:62:71:9f:a4:
                    6b:a8:b8:c9:d9:5b:a5:82:bc:4c:99:2e:d5:03:f2:
                    4c:b0:59:8c:9d:8a:3a:45:c1:74:09:9f:4d:ec:4a:
                    bc:31:d0:09:e0:8f:a9:02:bc:b0:a4:a5:6a:28:a5:
                    b2:50:b1:2e:b7:65:80:1c:e0:fd:2a:80:44:bf:8e:
                    88:eb:fa:19:7f:be:2e:9a:20:bd:43:df:92:04:c3:
                    04:d4:df:88:d3:9c:9b:81:94:09:bf:56:b8:da:fb:
                    ed:15:0c:af:6e:d6:63:0e:98:bc:e2:3c:fd:26:5d:
                    e7:29:a0:b5:48:f5:05:30:2f:90:96:84:21:2f:15:
                    dd:a1:c2:53:70:1f:d5:b7:eb:a0:20:b0:3d:d5:ea:
                    19:a4:99:2f:aa:44:f6:3b:e8:d0:37:8e:82:ed:2b:
                    db:c6:de:a6:a6:ea:19:bc:58:f5:21:e0:33:9f:a8:
                    40:33:40:77:c1:14:5a:3f:3e:7c:ae:cd:c3:d6:b8:
                    dc:fe:55:50:54:46:76:cd:9a:33:a5:5c:ac:3a:db:
                    42:2a:f2:16:4e:01:e6:d6:76:51:40:3f:6c:6c:61:
                    6b:1b:87:b8:1c:67:ab:81:f4:aa:86:4b:d6:a6:19:
                    9f:7e:1c:6b:f6:00:2d:7a:ab:c7:ee:dc:6f:46:f1:
                    bc:fd
                Exponent: 65537 (0x10001)
        X509v3 extensions:
            X509v3 Basic Constraints: 
                CA:FALSE
            Netscape Comment: 
                OpenSSL Generated Certificate
            X509v3 Subject Key Identifier: 
                D5:67:3F:7D:B8:E4:03:C6:52:06:49:29:F7:06:72:76:14:AE:8A:D7
            X509v3 Authority Key Identifier: 
                keyid:CD:8D:E1:FC:84:3F:81:40:99:2E:F3:61:BC:4F:A1:E2:8F:42:FA:3B

    Signature Algorithm: sha256WithRSAEncryption
         72:98:43:51:35:9d:90:25:3e:69:ea:42:fc:8e:0d:96:f3:8f:
         b5:6d:98:e3:c9:d5:0b:c0:b2:91:2d:3f:65:99:39:8d:96:48:
         17:b8:a2:bf:7b:a8:23:a1:77:ed:fb:f8:26:dd:84:8c:34:f9:
         d3:2a:d9:dc:97:92:c5:39:a9:81:c2:af:5f:d2:18:87:8c:e3:
         94:09:a2:0c:77:f1:54:e4:91:70:88:ac:46:16:25:19:3f:aa:
         34:64:a7:a8:68:e8:5b:e3:da:c9:6f:b5:ef:18:8d:ae:3f:18:
         3b:31:23:d4:55:14:bd:97:9f:33:e2:cc:4b:63:26:98:f6:5f:
         29:a0:4c:9d:28:4b:d4:97:6b:e4:a3:4d:cc:6a:eb:2f:65:a5:
         31:fd:3b:6d:db:cd:d4:95:c8:53:57:48:4e:71:9b:aa:4a:43:
         0f:e2:de:1a:4e:c7:19:9f:5d:fd:47:5f:e6:49:03:86:a7:3d:
         12:eb:f1:70:a4:e7:d4:69:c8:d6:e3:f1:59:fd:57:22:fc:e2:
         17:69:19:bf:89:36:56:22:84:11:0c:ce:d0:7a:c1:d1:8e:6a:
         11:82:1d:7e:76:16:79:a4:c8:55:0c:d8:6a:b1:87:cf:fa:1a:
         61:7e:3c:61:02:a4:55:a4:ef:7c:c9:22:32:85:da:42:3b:c7:
         e9:df:19:65
-----BEGIN CERTIFICATE-----
MIIEBDCCAuygAwIBAgICEAowDQYJKoZIhvcNAQELBQAwgYYxCzAJBgNVBAYTAjkx
MQ4wDAYDVQQIDAVIdWJlaTEOMAwGA1UEBwwFV3VoYW4xDTALBgNVBAoMBEhVU1Qx
DTALBgNVBAsMBEhVU1QxFzAVBgNVBAMMDnl1YW56aG9uZ3NoZW5nMSAwHgYJKoZI
hvcNAQkBFhEyODQxMzI5OTgwQHFxLmNvbTAeFw0yMzA1MTUxMzQ1MTFaFw0zMzA1
MTIxMzQ1MTFaMIGFMQswCQYDVQQGEwI5MTEOMAwGA1UECAwFSHViZWkxDjAMBgNV
BAcMBVd1aGFuMQ0wCwYDVQQKDARIVVNUMQwwCgYDVQQLDANDU0UxFzAVBgNVBAMM
Dnl1YW56aG9uZ3NoZW5nMSAwHgYJKoZIhvcNAQkBFhEyODQxMzI5OTgwQHFxLmNv
bTCCASIwDQYJKoZIhvcNAQEBBQADggEPADCCAQoCggEBALTm4nxKUmGv31FicZ+k
a6i4ydlbpYK8TJku1QPyTLBZjJ2KOkXBdAmfTexKvDHQCeCPqQK8sKSlaiilslCx
LrdlgBzg/SqARL+OiOv6GX++LpogvUPfkgTDBNTfiNOcm4GUCb9WuNr77RUMr27W
Yw6YvOI8/SZd5ymgtUj1BTAvkJaEIS8V3aHCU3Af1bfroCCwPdXqGaSZL6pE9jvo
0DeOgu0r28bepqbqGbxY9SHgM5+oQDNAd8EUWj8+fK7Nw9a43P5VUFRGds2aM6Vc
rDrbQiryFk4B5tZ2UUA/bGxhaxuHuBxnq4H0qoZL1qYZn34ca/YALXqrx+7cb0bx
vP0CAwEAAaN7MHkwCQYDVR0TBAIwADAsBglghkgBhvhCAQ0EHxYdT3BlblNTTCBH
ZW5lcmF0ZWQgQ2VydGlmaWNhdGUwHQYDVR0OBBYEFNVnP3245APGUgZJKfcGcnYU
rorXMB8GA1UdIwQYMBaAFM2N4fyEP4FAmS7zYbxPoeKPQvo7MA0GCSqGSIb3DQEB
CwUAA4IBAQBymENRNZ2QJT5p6kL8jg2W84+1bZjjydULwLKRLT9lmTmNlkgXuKK/
e6gjoXft+/gm3YSMNPnTKtncl5LFOamBwq9f0hiHjOOUCaIMd/FU5JFwiKxGFiUZ
P6o0ZKeoaOhb49rJb7XvGI2uPxg7MSPUVRS9l58z4sxLYyaY9l8poEydKEvUl2vk
o03MausvZaUx/Ttt283UlchTV0hOcZuqSkMP4t4aTscZn139R1/mSQOGpz0S6/Fw
pOfUacjW4/FZ/Vci/OIXaRm/iTZWIoQRDM7QesHRjmoRgh1+dhZ5pMhVDNhqsYfP
+hphfjxhAqRVpO98ySIyhdpCO8fp3xll
-----END CERTIFICATE-----
