Certificate:
    Data:
        Version: 3 (0x2)
        Serial Number: 4107 (0x100b)
    Signature Algorithm: sha256WithRSAEncryption
        Issuer: C=91, ST=Hubei, L=Wuhan, O=HUST, OU=CSE, CN=yuanzhongsheng/emailAddress=2841329980@qq.com
        Validity
            Not Before: May 15 13:50:09 2023 GMT
            Not After : May 12 13:50:09 2033 GMT
        Subject: C=91, ST=Hubei, L=Wuhan, O=HUST, OU=CSE, CN=yuanzhongsheng/emailAddress=2841329980@qq.com
        Subject Public Key Info:
            Public Key Algorithm: rsaEncryption
                Public-Key: (2048 bit)
                Modulus:
                    00:ed:96:45:86:82:d0:29:43:9c:55:d1:30:18:ef:
                    4e:91:c1:47:92:c8:ae:5c:46:24:d5:d7:f5:07:23:
                    94:3d:cc:1b:74:40:4d:b8:10:9c:a9:37:21:62:7e:
                    30:96:e5:9d:cb:b8:54:00:52:75:dc:f7:30:25:01:
                    fa:5e:12:85:df:65:44:ef:60:64:bd:83:bb:37:d2:
                    f6:2e:44:42:c0:29:e1:cb:5f:fb:c2:f3:5b:98:03:
                    e2:ad:8c:85:f1:c6:05:52:18:f6:f1:dd:4e:f6:61:
                    6c:27:c9:20:2c:7b:0c:7e:2c:99:13:0e:ef:d4:44:
                    c5:99:6a:de:9b:09:80:a8:37:58:62:a0:f7:f8:d4:
                    79:6a:73:dc:2a:9f:51:c5:d0:26:98:d0:91:14:ab:
                    62:29:5c:ae:40:3e:38:d2:fd:da:4c:2d:cc:ab:f6:
                    1b:a4:62:80:99:47:21:14:8b:2f:fa:a6:c4:08:a2:
                    fe:4f:48:79:26:ee:40:2e:97:35:a7:46:e2:82:00:
                    06:44:8f:94:72:8c:dd:c6:1e:be:5e:97:6d:73:67:
                    f0:ef:22:18:ba:9b:3e:e4:65:ea:5b:0a:16:8f:d6:
                    7f:b0:8c:9f:e2:0f:f4:73:91:20:46:e1:2d:e4:98:
                    2f:42:d6:d8:7b:18:2d:aa:0e:13:10:fc:e5:d8:46:
                    f8:43
                Exponent: 65537 (0x10001)
        X509v3 extensions:
            X509v3 Basic Constraints: 
                CA:FALSE
            Netscape Comment: 
                OpenSSL Generated Certificate
            X509v3 Subject Key Identifier: 
                25:71:26:77:E2:23:1B:12:AE:9E:03:52:2F:B9:E6:19:C8:D1:AD:F3
            X509v3 Authority Key Identifier: 
                keyid:81:3A:E5:18:95:49:C4:0B:45:84:2A:85:9D:96:A2:D8:E8:AB:DF:DB

    Signature Algorithm: sha256WithRSAEncryption
         23:46:1f:ed:67:f4:45:8e:95:86:a8:4c:89:17:35:57:82:e8:
         29:2f:5e:a0:e5:e0:01:22:22:12:ae:3f:b2:1b:e0:e0:f1:9e:
         d3:d4:db:92:d7:d7:69:53:31:7c:6e:0e:8c:dd:6e:33:6b:13:
         ea:d8:7b:a7:e4:5a:6c:22:cd:da:81:34:cb:56:35:e9:31:93:
         fb:9e:09:fc:0f:b9:79:1c:b8:b9:79:f0:20:ab:98:0e:c0:13:
         8d:b1:25:13:67:69:2e:43:99:cb:3f:7a:5e:f8:f0:fa:7f:e0:
         47:a2:32:a0:7e:79:30:54:94:d5:71:ef:58:65:1f:c2:1b:4d:
         56:b6:f8:ea:44:1e:cf:40:23:72:59:13:8c:f7:39:d8:8b:15:
         c8:be:c2:50:0e:12:05:3f:95:32:64:d6:c4:f1:ba:1e:68:83:
         23:f5:f4:c7:3a:01:ee:fa:d9:e2:e2:14:47:ab:43:f1:a0:e7:
         f4:0a:95:93:46:11:15:5c:b7:ad:17:7a:e3:ad:c7:08:23:cd:
         c3:3a:28:53:5e:91:7f:a8:a8:82:5e:5d:6c:00:fd:70:d0:0a:
         39:02:8f:b2:5f:6b:5a:e2:72:c2:92:e1:20:53:f5:6a:2f:08:
         a6:16:f0:4c:30:6f:45:28:44:c6:b0:77:db:f7:ed:20:3c:89:
         d4:34:47:c6
-----BEGIN CERTIFICATE-----
MIIEAzCCAuugAwIBAgICEAswDQYJKoZIhvcNAQELBQAwgYUxCzAJBgNVBAYTAjkx
MQ4wDAYDVQQIDAVIdWJlaTEOMAwGA1UEBwwFV3VoYW4xDTALBgNVBAoMBEhVU1Qx
DDAKBgNVBAsMA0NTRTEXMBUGA1UEAwwOeXVhbnpob25nc2hlbmcxIDAeBgkqhkiG
9w0BCQEWETI4NDEzMjk5ODBAcXEuY29tMB4XDTIzMDUxNTEzNTAwOVoXDTMzMDUx
MjEzNTAwOVowgYUxCzAJBgNVBAYTAjkxMQ4wDAYDVQQIDAVIdWJlaTEOMAwGA1UE
BwwFV3VoYW4xDTALBgNVBAoMBEhVU1QxDDAKBgNVBAsMA0NTRTEXMBUGA1UEAwwO
eXVhbnpob25nc2hlbmcxIDAeBgkqhkiG9w0BCQEWETI4NDEzMjk5ODBAcXEuY29t
MIIBIjANBgkqhkiG9w0BAQEFAAOCAQ8AMIIBCgKCAQEA7ZZFhoLQKUOcVdEwGO9O
kcFHksiuXEYk1df1ByOUPcwbdEBNuBCcqTchYn4wluWdy7hUAFJ13PcwJQH6XhKF
32VE72BkvYO7N9L2LkRCwCnhy1/7wvNbmAPirYyF8cYFUhj28d1O9mFsJ8kgLHsM
fiyZEw7v1ETFmWremwmAqDdYYqD3+NR5anPcKp9RxdAmmNCRFKtiKVyuQD440v3a
TC3Mq/YbpGKAmUchFIsv+qbECKL+T0h5Ju5ALpc1p0biggAGRI+Ucozdxh6+Xpdt
c2fw7yIYups+5GXqWwoWj9Z/sIyf4g/0c5EgRuEt5JgvQtbYexgtqg4TEPzl2Eb4
QwIDAQABo3sweTAJBgNVHRMEAjAAMCwGCWCGSAGG+EIBDQQfFh1PcGVuU1NMIEdl
bmVyYXRlZCBDZXJ0aWZpY2F0ZTAdBgNVHQ4EFgQUJXEmd+IjGxKungNSL7nmGcjR
rfMwHwYDVR0jBBgwFoAUgTrlGJVJxAtFhCqFnZai2Oir39swDQYJKoZIhvcNAQEL
BQADggEBACNGH+1n9EWOlYaoTIkXNVeC6CkvXqDl4AEiIhKuP7Ib4ODxntPU25LX
12lTMXxuDozdbjNrE+rYe6fkWmwizdqBNMtWNekxk/ueCfwPuXkcuLl58CCrmA7A
E42xJRNnaS5Dmcs/el748Pp/4EeiMqB+eTBUlNVx71hlH8IbTVa2+OpEHs9AI3JZ
E4z3OdiLFci+wlAOEgU/lTJk1sTxuh5ogyP19Mc6Ae762eLiFEerQ/Gg5/QKlZNG
ERVct60XeuOtxwgjzcM6KFNekX+oqIJeXWwA/XDQCjkCj7Jfa1ricsKS4SBT9Wov
CKYW8Ewwb0UoRMawd9v37SA8idQ0R8Y=
-----END CERTIFICATE-----
