Certificate:
    Data:
        Version: 3 (0x2)
        Serial Number: 4108 (0x100c)
    Signature Algorithm: sha256WithRSAEncryption
        Issuer: C=91, ST=Hubei, L=Wuhan, O=HUST, OU=CSE, CN=yuanzhongsheng/emailAddress=2841329980@qq.com
        Validity
            Not Before: May 15 13:52:17 2023 GMT
            Not After : May 12 13:52:17 2033 GMT
        Subject: C=91, ST=Hubei, L=Wuhan, O=HUST, OU=CSE, CN=yuanzhongsheng/emailAddress=2841329980@qq.com
        Subject Public Key Info:
            Public Key Algorithm: rsaEncryption
                Public-Key: (2048 bit)
                Modulus:
                    00:ed:96:45:86:82:d0:29:43:9c:55:d1:30:18:ef:
                    4e:91:c1:47:92:c8:ae:5c:46:24:d5:d7:f5:07:23:
                    94:3d:cc:1b:74:40:4d:b8:10:9c:a9:37:21:62:7e:
                    30:96:e5:9d:cb:b8:54:00:52:75:dc:f7:30:25:01:
                    fa:5e:12:85:df:65:44:ef:60:64:bd:83:bb:37:d2:
                    f6:2e:44:42:c0:29:e1:cb:5f:fb:c2:f3:5b:98:03:
                    e2:ad:8c:85:f1:c6:05:52:18:f6:f1:dd:4e:f6:61:
                    6c:27:c9:20:2c:7b:0c:7e:2c:99:13:0e:ef:d4:44:
                    c5:99:6a:de:9b:09:80:a8:37:58:62:a0:f7:f8:d4:
                    79:6a:73:dc:2a:9f:51:c5:d0:26:98:d0:91:14:ab:
                    62:29:5c:ae:40:3e:38:d2:fd:da:4c:2d:cc:ab:f6:
                    1b:a4:62:80:99:47:21:14:8b:2f:fa:a6:c4:08:a2:
                    fe:4f:48:79:26:ee:40:2e:97:35:a7:46:e2:82:00:
                    06:44:8f:94:72:8c:dd:c6:1e:be:5e:97:6d:73:67:
                    f0:ef:22:18:ba:9b:3e:e4:65:ea:5b:0a:16:8f:d6:
                    7f:b0:8c:9f:e2:0f:f4:73:91:20:46:e1:2d:e4:98:
                    2f:42:d6:d8:7b:18:2d:aa:0e:13:10:fc:e5:d8:46:
                    f8:43
                Exponent: 65537 (0x10001)
        X509v3 extensions:
            X509v3 Basic Constraints: 
                CA:FALSE
            Netscape Comment: 
                OpenSSL Generated Certificate
            X509v3 Subject Key Identifier: 
                25:71:26:77:E2:23:1B:12:AE:9E:03:52:2F:B9:E6:19:C8:D1:AD:F3
            X509v3 Authority Key Identifier: 
                keyid:81:3A:E5:18:95:49:C4:0B:45:84:2A:85:9D:96:A2:D8:E8:AB:DF:DB

    Signature Algorithm: sha256WithRSAEncryption
         58:04:dc:a6:f9:16:cd:e6:9f:d8:90:e4:ab:cb:b4:0a:76:f6:
         dd:19:3f:cd:bc:cf:f0:1f:6b:b3:6f:be:15:79:9b:ff:24:43:
         c9:47:20:0f:52:3a:92:e2:a5:60:55:4e:ac:8a:5a:a8:bb:80:
         bf:60:b5:7b:dd:3c:b3:74:fa:e5:63:90:2a:8d:97:17:42:4e:
         94:d8:c7:e6:c5:c6:95:0f:4a:3e:8a:22:fd:46:c5:9e:45:bc:
         23:15:87:37:26:f7:90:d9:10:1b:ef:2f:32:7f:23:38:a8:48:
         1b:af:56:89:d8:3c:fe:2c:91:5b:38:96:86:cb:90:54:d2:7d:
         76:08:91:f1:ca:8e:6b:c0:03:c7:b7:fd:41:a2:7b:53:11:61:
         46:aa:51:70:5f:94:f4:05:b5:fe:28:db:d6:05:ce:e7:53:d6:
         c1:d0:39:35:73:36:5f:73:89:56:90:57:52:00:dc:f7:97:e0:
         07:86:5f:da:bb:25:64:11:dd:0d:2e:d2:be:99:11:03:ab:1e:
         f3:c8:b4:7a:5c:c1:c2:87:05:79:11:a1:5d:e9:63:bf:60:da:
         58:bf:d7:e5:fd:4e:fa:88:64:77:e1:10:bb:6b:99:b3:46:c6:
         3b:7b:f7:10:f9:38:47:ef:dc:5e:52:0a:37:e1:64:f7:4f:6c:
         a2:99:82:05
-----BEGIN CERTIFICATE-----
MIIEAzCCAuugAwIBAgICEAwwDQYJKoZIhvcNAQELBQAwgYUxCzAJBgNVBAYTAjkx
MQ4wDAYDVQQIDAVIdWJlaTEOMAwGA1UEBwwFV3VoYW4xDTALBgNVBAoMBEhVU1Qx
DDAKBgNVBAsMA0NTRTEXMBUGA1UEAwwOeXVhbnpob25nc2hlbmcxIDAeBgkqhkiG
9w0BCQEWETI4NDEzMjk5ODBAcXEuY29tMB4XDTIzMDUxNTEzNTIxN1oXDTMzMDUx
MjEzNTIxN1owgYUxCzAJBgNVBAYTAjkxMQ4wDAYDVQQIDAVIdWJlaTEOMAwGA1UE
BwwFV3VoYW4xDTALBgNVBAoMBEhVU1QxDDAKBgNVBAsMA0NTRTEXMBUGA1UEAwwO
eXVhbnpob25nc2hlbmcxIDAeBgkqhkiG9w0BCQEWETI4NDEzMjk5ODBAcXEuY29t
MIIBIjANBgkqhkiG9w0BAQEFAAOCAQ8AMIIBCgKCAQEA7ZZFhoLQKUOcVdEwGO9O
kcFHksiuXEYk1df1ByOUPcwbdEBNuBCcqTchYn4wluWdy7hUAFJ13PcwJQH6XhKF
32VE72BkvYO7N9L2LkRCwCnhy1/7wvNbmAPirYyF8cYFUhj28d1O9mFsJ8kgLHsM
fiyZEw7v1ETFmWremwmAqDdYYqD3+NR5anPcKp9RxdAmmNCRFKtiKVyuQD440v3a
TC3Mq/YbpGKAmUchFIsv+qbECKL+T0h5Ju5ALpc1p0biggAGRI+Ucozdxh6+Xpdt
c2fw7yIYups+5GXqWwoWj9Z/sIyf4g/0c5EgRuEt5JgvQtbYexgtqg4TEPzl2Eb4
QwIDAQABo3sweTAJBgNVHRMEAjAAMCwGCWCGSAGG+EIBDQQfFh1PcGVuU1NMIEdl
bmVyYXRlZCBDZXJ0aWZpY2F0ZTAdBgNVHQ4EFgQUJXEmd+IjGxKungNSL7nmGcjR
rfMwHwYDVR0jBBgwFoAUgTrlGJVJxAtFhCqFnZai2Oir39swDQYJKoZIhvcNAQEL
BQADggEBAFgE3Kb5Fs3mn9iQ5KvLtAp29t0ZP828z/Afa7NvvhV5m/8kQ8lHIA9S
OpLipWBVTqyKWqi7gL9gtXvdPLN0+uVjkCqNlxdCTpTYx+bFxpUPSj6KIv1GxZ5F
vCMVhzcm95DZEBvvLzJ/IzioSBuvVonYPP4skVs4lobLkFTSfXYIkfHKjmvAA8e3
/UGie1MRYUaqUXBflPQFtf4o29YFzudT1sHQOTVzNl9ziVaQV1IA3PeX4AeGX9q7
JWQR3Q0u0r6ZEQOrHvPItHpcwcKHBXkRoV3pY79g2li/1+X9TvqIZHfhELtrmbNG
xjt79xD5OEfv3F5SCjfhZPdPbKKZggU=
-----END CERTIFICATE-----
