Certificate:
    Data:
        Version: 3 (0x2)
        Serial Number: 4109 (0x100d)
    Signature Algorithm: sha256WithRSAEncryption
        Issuer: C=91, ST=Hubei, L=Wuhan, O=HUST, OU=CSE, CN=yuanzhongsheng/emailAddress=2841329980@qq.com
        Validity
            Not Before: May 15 13:52:50 2023 GMT
            Not After : May 12 13:52:50 2033 GMT
        Subject: C=91, ST=Hubei, L=Wuhan, O=HUST, OU=CSE, CN=yuanzhongsheng/emailAddress=2841329980@qq.com
        Subject Public Key Info:
            Public Key Algorithm: rsaEncryption
                Public-Key: (2048 bit)
                Modulus:
                    00:de:62:b2:0f:2e:68:97:92:d0:e9:91:45:8a:74:
                    ba:3f:04:ec:5f:df:76:04:70:e7:09:32:82:35:74:
                    2e:77:0f:5a:19:0e:b0:c2:ef:a2:7f:6f:3a:4a:ca:
                    b0:bb:e2:97:bf:85:17:81:85:82:70:2f:15:73:bc:
                    41:ba:38:ab:97:a5:76:18:5b:5c:50:29:aa:3d:34:
                    eb:d7:de:b8:75:ac:f5:7c:19:85:a2:a2:56:88:92:
                    5a:4a:ca:2f:a6:ae:87:e4:fc:83:d6:6d:27:0b:73:
                    a3:aa:bf:90:0f:07:60:3a:18:25:8c:71:ca:20:1a:
                    d4:cb:08:30:d2:ee:84:bb:63:dd:c5:30:23:06:f8:
                    b0:58:7c:58:d6:8e:7d:ad:5f:41:93:d6:73:22:e0:
                    f7:8e:7e:3c:a1:29:34:d8:52:1c:09:49:ef:ed:5b:
                    fc:4a:f6:97:88:ef:da:f8:2b:e7:6b:bb:63:2a:6c:
                    2a:37:6d:ed:e5:1b:80:a6:f6:0b:af:70:ff:88:ba:
                    ea:aa:40:04:ec:6f:cc:53:99:6c:cf:cf:01:24:97:
                    7b:a6:59:9b:af:11:57:1c:09:ed:8c:70:2a:d9:20:
                    32:3d:6b:8c:a7:75:04:a6:77:7c:0f:41:24:18:4e:
                    9d:b6:92:81:e5:7e:11:58:2d:f3:de:c7:df:c6:b1:
                    04:eb
                Exponent: 65537 (0x10001)
        X509v3 extensions:
            X509v3 Basic Constraints: 
                CA:FALSE
            Netscape Comment: 
                OpenSSL Generated Certificate
            X509v3 Subject Key Identifier: 
                4A:AB:4B:CB:29:DA:22:FB:D2:2B:73:ED:19:42:2B:ED:68:EC:5A:29
            X509v3 Authority Key Identifier: 
                keyid:81:3A:E5:18:95:49:C4:0B:45:84:2A:85:9D:96:A2:D8:E8:AB:DF:DB

    Signature Algorithm: sha256WithRSAEncryption
         21:37:3e:5d:8d:9b:11:8f:fd:7b:93:8f:97:41:63:7b:20:95:
         f5:44:e1:9f:9d:2f:85:ca:09:8a:89:fa:ab:0c:b1:b8:cd:80:
         17:48:14:95:13:51:5e:50:76:48:0a:e9:d3:72:de:ad:53:bf:
         76:7a:db:c7:c2:b0:d3:8a:0e:15:57:da:fb:b6:68:35:82:bd:
         77:c0:76:ba:7c:a2:ae:50:2d:0b:17:5d:30:18:19:42:71:f8:
         19:3e:98:7e:00:9c:cf:a7:be:31:52:7e:f7:3c:09:65:fd:08:
         24:39:ca:fd:b7:67:b6:aa:92:d2:24:2a:6d:6f:4a:9b:29:49:
         c8:39:43:59:54:79:5c:d0:de:77:8b:04:1d:48:63:83:1a:8f:
         55:ca:7d:59:7e:29:b3:ac:81:37:b9:53:d2:03:6c:ab:86:ce:
         a9:72:aa:a7:19:d7:1a:1e:99:83:fd:34:05:3f:3c:88:97:2e:
         7f:4a:5a:00:94:78:b2:ed:01:35:6f:a5:c3:6f:fc:46:d5:13:
         fe:93:a6:d3:51:81:25:34:00:12:02:8e:4f:a0:1c:2d:ce:09:
         db:a3:dc:4d:3a:fd:52:09:7a:ef:33:ae:5c:bf:f6:d9:0b:c9:
         65:ad:6e:f0:e3:28:29:10:20:e1:8e:e3:e1:b9:19:8a:41:47:
         14:1d:bb:26
-----BEGIN CERTIFICATE-----
MIIEAzCCAuugAwIBAgICEA0wDQYJKoZIhvcNAQELBQAwgYUxCzAJBgNVBAYTAjkx
MQ4wDAYDVQQIDAVIdWJlaTEOMAwGA1UEBwwFV3VoYW4xDTALBgNVBAoMBEhVU1Qx
DDAKBgNVBAsMA0NTRTEXMBUGA1UEAwwOeXVhbnpob25nc2hlbmcxIDAeBgkqhkiG
9w0BCQEWETI4NDEzMjk5ODBAcXEuY29tMB4XDTIzMDUxNTEzNTI1MFoXDTMzMDUx
MjEzNTI1MFowgYUxCzAJBgNVBAYTAjkxMQ4wDAYDVQQIDAVIdWJlaTEOMAwGA1UE
BwwFV3VoYW4xDTALBgNVBAoMBEhVU1QxDDAKBgNVBAsMA0NTRTEXMBUGA1UEAwwO
eXVhbnpob25nc2hlbmcxIDAeBgkqhkiG9w0BCQEWETI4NDEzMjk5ODBAcXEuY29t
MIIBIjANBgkqhkiG9w0BAQEFAAOCAQ8AMIIBCgKCAQEA3mKyDy5ol5LQ6ZFFinS6
PwTsX992BHDnCTKCNXQudw9aGQ6wwu+if286Ssqwu+KXv4UXgYWCcC8Vc7xBujir
l6V2GFtcUCmqPTTr1964daz1fBmFoqJWiJJaSsovpq6H5PyD1m0nC3Ojqr+QDwdg
OhgljHHKIBrUywgw0u6Eu2PdxTAjBviwWHxY1o59rV9Bk9ZzIuD3jn48oSk02FIc
CUnv7Vv8SvaXiO/a+Cvna7tjKmwqN23t5RuApvYLr3D/iLrqqkAE7G/MU5lsz88B
JJd7plmbrxFXHAntjHAq2SAyPWuMp3UEpnd8D0EkGE6dtpKB5X4RWC3z3sffxrEE
6wIDAQABo3sweTAJBgNVHRMEAjAAMCwGCWCGSAGG+EIBDQQfFh1PcGVuU1NMIEdl
bmVyYXRlZCBDZXJ0aWZpY2F0ZTAdBgNVHQ4EFgQUSqtLyynaIvvSK3PtGUIr7Wjs
WikwHwYDVR0jBBgwFoAUgTrlGJVJxAtFhCqFnZai2Oir39swDQYJKoZIhvcNAQEL
BQADggEBACE3Pl2NmxGP/XuTj5dBY3sglfVE4Z+dL4XKCYqJ+qsMsbjNgBdIFJUT
UV5QdkgK6dNy3q1Tv3Z628fCsNOKDhVX2vu2aDWCvXfAdrp8oq5QLQsXXTAYGUJx
+Bk+mH4AnM+nvjFSfvc8CWX9CCQ5yv23Z7aqktIkKm1vSpspScg5Q1lUeVzQ3neL
BB1IY4Maj1XKfVl+KbOsgTe5U9IDbKuGzqlyqqcZ1xoemYP9NAU/PIiXLn9KWgCU
eLLtATVvpcNv/EbVE/6TptNRgSU0ABICjk+gHC3OCduj3E06/VIJeu8zrly/9tkL
yWWtbvDjKCkQIOGO4+G5GYpBRxQduyY=
-----END CERTIFICATE-----
