Certificate:
    Data:
        Version: 3 (0x2)
        Serial Number: 4110 (0x100e)
    Signature Algorithm: sha256WithRSAEncryption
        Issuer: C=91, ST=Hubei, L=Wuhan, O=HUST, OU=CSE, CN=yuanzhongsheng/emailAddress=2841329980@qq.com
        Validity
            Not Before: May 15 13:53:58 2023 GMT
            Not After : May 12 13:53:58 2033 GMT
        Subject: C=91, ST=Hubei, L=Wuhan, O=HUST, OU=CSE, CN=yuanzhongsheng/emailAddress=2841329980@qq.com
        Subject Public Key Info:
            Public Key Algorithm: rsaEncryption
                Public-Key: (2048 bit)
                Modulus:
                    00:ed:96:45:86:82:d0:29:43:9c:55:d1:30:18:ef:
                    4e:91:c1:47:92:c8:ae:5c:46:24:d5:d7:f5:07:23:
                    94:3d:cc:1b:74:40:4d:b8:10:9c:a9:37:21:62:7e:
                    30:96:e5:9d:cb:b8:54:00:52:75:dc:f7:30:25:01:
                    fa:5e:12:85:df:65:44:ef:60:64:bd:83:bb:37:d2:
                    f6:2e:44:42:c0:29:e1:cb:5f:fb:c2:f3:5b:98:03:
                    e2:ad:8c:85:f1:c6:05:52:18:f6:f1:dd:4e:f6:61:
                    6c:27:c9:20:2c:7b:0c:7e:2c:99:13:0e:ef:d4:44:
                    c5:99:6a:de:9b:09:80:a8:37:58:62:a0:f7:f8:d4:
                    79:6a:73:dc:2a:9f:51:c5:d0:26:98:d0:91:14:ab:
                    62:29:5c:ae:40:3e:38:d2:fd:da:4c:2d:cc:ab:f6:
                    1b:a4:62:80:99:47:21:14:8b:2f:fa:a6:c4:08:a2:
                    fe:4f:48:79:26:ee:40:2e:97:35:a7:46:e2:82:00:
                    06:44:8f:94:72:8c:dd:c6:1e:be:5e:97:6d:73:67:
                    f0:ef:22:18:ba:9b:3e:e4:65:ea:5b:0a:16:8f:d6:
                    7f:b0:8c:9f:e2:0f:f4:73:91:20:46:e1:2d:e4:98:
                    2f:42:d6:d8:7b:18:2d:aa:0e:13:10:fc:e5:d8:46:
                    f8:43
                Exponent: 65537 (0x10001)
        X509v3 extensions:
            X509v3 Basic Constraints: 
                CA:FALSE
            Netscape Comment: 
                OpenSSL Generated Certificate
            X509v3 Subject Key Identifier: 
                25:71:26:77:E2:23:1B:12:AE:9E:03:52:2F:B9:E6:19:C8:D1:AD:F3
            X509v3 Authority Key Identifier: 
                keyid:81:3A:E5:18:95:49:C4:0B:45:84:2A:85:9D:96:A2:D8:E8:AB:DF:DB

    Signature Algorithm: sha256WithRSAEncryption
         a9:67:9f:2a:5b:54:23:2b:c6:27:a3:ba:5e:0d:5c:a2:b0:b9:
         c7:37:7d:d5:7e:e6:a4:66:35:48:8f:45:f9:6b:f8:38:98:c4:
         8a:c4:a1:1f:48:2d:16:99:5c:4b:da:02:2e:5f:4c:6b:2d:50:
         ea:12:8e:51:de:aa:0d:f6:c3:32:19:7d:a8:d5:e5:82:72:3a:
         0f:d9:e0:66:84:1e:ca:e7:07:13:e2:e6:0b:da:32:1c:20:a8:
         88:05:5e:2a:35:96:23:7b:5d:39:bf:36:0a:38:bf:15:9f:03:
         78:1c:0b:43:de:17:ef:7b:0b:74:73:f8:a5:30:cd:46:30:5f:
         53:5f:24:1a:ef:a5:fd:19:68:69:5d:e8:79:d3:e2:1e:c8:76:
         ea:98:dd:8a:a2:d9:52:2f:2a:fb:a3:d5:76:a0:e9:d0:66:96:
         cb:a0:f9:35:f0:cb:35:81:69:80:0d:70:da:50:c0:4b:03:d7:
         e3:b0:52:10:78:ac:0d:f6:55:42:71:fc:c3:e2:95:a7:0a:20:
         a9:d8:d9:d7:ed:95:4f:40:72:af:3f:5a:92:68:f2:d8:8c:98:
         1c:7a:ef:0e:bf:ec:12:56:16:d1:15:cf:06:30:f6:1d:10:f7:
         b7:dc:80:87:ad:5e:be:52:cc:04:f7:d0:96:d7:23:0a:ad:51:
         77:b0:ac:10
-----BEGIN CERTIFICATE-----
MIIEAzCCAuugAwIBAgICEA4wDQYJKoZIhvcNAQELBQAwgYUxCzAJBgNVBAYTAjkx
MQ4wDAYDVQQIDAVIdWJlaTEOMAwGA1UEBwwFV3VoYW4xDTALBgNVBAoMBEhVU1Qx
DDAKBgNVBAsMA0NTRTEXMBUGA1UEAwwOeXVhbnpob25nc2hlbmcxIDAeBgkqhkiG
9w0BCQEWETI4NDEzMjk5ODBAcXEuY29tMB4XDTIzMDUxNTEzNTM1OFoXDTMzMDUx
MjEzNTM1OFowgYUxCzAJBgNVBAYTAjkxMQ4wDAYDVQQIDAVIdWJlaTEOMAwGA1UE
BwwFV3VoYW4xDTALBgNVBAoMBEhVU1QxDDAKBgNVBAsMA0NTRTEXMBUGA1UEAwwO
eXVhbnpob25nc2hlbmcxIDAeBgkqhkiG9w0BCQEWETI4NDEzMjk5ODBAcXEuY29t
MIIBIjANBgkqhkiG9w0BAQEFAAOCAQ8AMIIBCgKCAQEA7ZZFhoLQKUOcVdEwGO9O
kcFHksiuXEYk1df1ByOUPcwbdEBNuBCcqTchYn4wluWdy7hUAFJ13PcwJQH6XhKF
32VE72BkvYO7N9L2LkRCwCnhy1/7wvNbmAPirYyF8cYFUhj28d1O9mFsJ8kgLHsM
fiyZEw7v1ETFmWremwmAqDdYYqD3+NR5anPcKp9RxdAmmNCRFKtiKVyuQD440v3a
TC3Mq/YbpGKAmUchFIsv+qbECKL+T0h5Ju5ALpc1p0biggAGRI+Ucozdxh6+Xpdt
c2fw7yIYups+5GXqWwoWj9Z/sIyf4g/0c5EgRuEt5JgvQtbYexgtqg4TEPzl2Eb4
QwIDAQABo3sweTAJBgNVHRMEAjAAMCwGCWCGSAGG+EIBDQQfFh1PcGVuU1NMIEdl
bmVyYXRlZCBDZXJ0aWZpY2F0ZTAdBgNVHQ4EFgQUJXEmd+IjGxKungNSL7nmGcjR
rfMwHwYDVR0jBBgwFoAUgTrlGJVJxAtFhCqFnZai2Oir39swDQYJKoZIhvcNAQEL
BQADggEBAKlnnypbVCMrxiejul4NXKKwucc3fdV+5qRmNUiPRflr+DiYxIrEoR9I
LRaZXEvaAi5fTGstUOoSjlHeqg32wzIZfajV5YJyOg/Z4GaEHsrnBxPi5gvaMhwg
qIgFXio1liN7XTm/Ngo4vxWfA3gcC0PeF+97C3Rz+KUwzUYwX1NfJBrvpf0ZaGld
6HnT4h7IduqY3Yqi2VIvKvuj1Xag6dBmlsug+TXwyzWBaYANcNpQwEsD1+OwUhB4
rA32VUJx/MPilacKIKnY2dftlU9Acq8/WpJo8tiMmBx67w6/7BJWFtEVzwYw9h0Q
97fcgIetXr5SzAT30JbXIwqtUXewrBA=
-----END CERTIFICATE-----
