Certificate:
    Data:
        Version: 3 (0x2)
        Serial Number: 4111 (0x100f)
    Signature Algorithm: sha256WithRSAEncryption
        Issuer: C=91, ST=Hubei, L=Wuhan, O=HUST, OU=CSE, CN=yuanzhongsheng/emailAddress=2841329980@qq.com
        Validity
            Not Before: May 16 08:54:16 2023 GMT
            Not After : May 13 08:54:16 2033 GMT
        Subject: C=91, ST=Hubei, L=Wuhan, O=HUST, OU=CSE, CN=yuanzhongsheng/emailAddress=2841329980@qq.com
        Subject Public Key Info:
            Public Key Algorithm: rsaEncryption
                Public-Key: (2048 bit)
                Modulus:
                    00:ec:99:9e:78:7a:1f:85:18:97:89:07:75:92:9e:
                    19:87:9e:18:f9:02:11:44:1d:59:7a:ce:38:5c:d3:
                    92:de:08:cc:88:b4:ec:22:07:94:90:00:0c:a8:c7:
                    e2:c7:27:b1:18:40:88:38:9c:40:24:73:11:74:66:
                    49:4c:98:38:1c:eb:7f:57:40:53:d3:29:36:14:3f:
                    d4:8e:1c:ba:5a:aa:12:e6:0b:7f:22:b4:9b:cd:50:
                    c1:7e:7f:a3:77:d1:d1:79:e1:7b:95:1b:55:f6:2c:
                    87:dd:f1:53:30:2e:2c:9d:5c:cd:08:36:b5:1a:18:
                    fe:ea:48:54:62:cf:33:e6:c0:e3:e5:23:a5:3d:2e:
                    10:38:c9:f7:7f:a8:d1:fc:f9:a5:0a:9a:58:61:0e:
                    45:6b:72:4e:80:5f:d3:7c:34:42:3b:4e:82:b0:3a:
                    97:ce:e6:6b:74:7c:c1:03:55:bb:6a:1f:da:56:4d:
                    d3:e7:e3:d2:8f:8c:97:bb:37:83:7d:8d:26:a7:a1:
                    a6:4d:08:19:52:86:2c:0f:32:72:08:63:44:03:01:
                    91:1f:1a:1b:14:e2:51:b8:0f:a4:62:bd:3f:c0:76:
                    9a:08:4b:8a:45:47:91:d9:2a:92:48:7e:74:c9:22:
                    28:0b:39:4f:be:f3:f0:80:48:c1:06:cc:12:d6:2f:
                    18:2f
                Exponent: 65537 (0x10001)
        X509v3 extensions:
            X509v3 Basic Constraints: 
                CA:FALSE
            Netscape Comment: 
                OpenSSL Generated Certificate
            X509v3 Subject Key Identifier: 
                F6:1A:79:57:2C:F8:0F:3C:94:A3:65:A2:3B:CB:31:F7:B2:B1:6A:D8
            X509v3 Authority Key Identifier: 
                keyid:42:FF:18:7A:7E:99:82:BD:53:9C:B7:45:21:6D:BE:34:11:73:A9:8E

    Signature Algorithm: sha256WithRSAEncryption
         bc:4f:6c:ac:81:e6:4a:02:d9:c9:b4:11:70:96:61:db:10:09:
         72:f1:5c:bc:e8:97:29:15:11:11:66:70:34:8a:a3:b8:f4:f8:
         88:18:82:5d:0f:42:59:3e:28:d7:02:58:1c:1d:ec:93:46:aa:
         dd:4f:e8:83:36:f9:21:ba:e1:73:fd:5b:ed:00:ad:d6:5a:93:
         05:cb:c0:ae:e9:ed:85:b1:8c:f3:83:05:46:88:68:7c:82:7c:
         23:dd:e0:89:74:0e:f5:a3:c8:01:5c:d1:fe:18:73:56:50:8a:
         1d:91:b1:07:8d:a1:c2:0d:86:2b:0f:f4:ba:cb:e9:6a:17:ae:
         32:0d:99:9d:6d:f6:10:87:0e:12:2d:38:0b:e2:11:14:08:5b:
         31:78:0f:52:01:4f:27:5b:d6:6a:93:b1:80:fc:08:74:dd:39:
         ac:62:b6:ef:9a:71:22:de:ac:bc:eb:87:9c:de:19:0f:5f:d5:
         7b:55:8c:de:f2:8c:1e:00:eb:fb:8e:94:ca:3c:bc:00:cf:8c:
         45:9a:97:5f:15:7d:a4:1d:04:9d:71:ed:f5:37:af:da:d7:ab:
         4d:7f:43:26:bc:ba:59:25:29:4f:52:e2:e0:a1:47:be:fd:50:
         60:30:b1:e4:30:46:91:a7:df:c7:98:a5:9c:c2:ec:87:a5:de:
         c6:3a:94:dc
-----BEGIN CERTIFICATE-----
MIIEAzCCAuugAwIBAgICEA8wDQYJKoZIhvcNAQELBQAwgYUxCzAJBgNVBAYTAjkx
MQ4wDAYDVQQIDAVIdWJlaTEOMAwGA1UEBwwFV3VoYW4xDTALBgNVBAoMBEhVU1Qx
DDAKBgNVBAsMA0NTRTEXMBUGA1UEAwwOeXVhbnpob25nc2hlbmcxIDAeBgkqhkiG
9w0BCQEWETI4NDEzMjk5ODBAcXEuY29tMB4XDTIzMDUxNjA4NTQxNloXDTMzMDUx
MzA4NTQxNlowgYUxCzAJBgNVBAYTAjkxMQ4wDAYDVQQIDAVIdWJlaTEOMAwGA1UE
BwwFV3VoYW4xDTALBgNVBAoMBEhVU1QxDDAKBgNVBAsMA0NTRTEXMBUGA1UEAwwO
eXVhbnpob25nc2hlbmcxIDAeBgkqhkiG9w0BCQEWETI4NDEzMjk5ODBAcXEuY29t
MIIBIjANBgkqhkiG9w0BAQEFAAOCAQ8AMIIBCgKCAQEA7JmeeHofhRiXiQd1kp4Z
h54Y+QIRRB1Zes44XNOS3gjMiLTsIgeUkAAMqMfixyexGECIOJxAJHMRdGZJTJg4
HOt/V0BT0yk2FD/Ujhy6WqoS5gt/IrSbzVDBfn+jd9HReeF7lRtV9iyH3fFTMC4s
nVzNCDa1Ghj+6khUYs8z5sDj5SOlPS4QOMn3f6jR/PmlCppYYQ5Fa3JOgF/TfDRC
O06CsDqXzuZrdHzBA1W7ah/aVk3T5+PSj4yXuzeDfY0mp6GmTQgZUoYsDzJyCGNE
AwGRHxobFOJRuA+kYr0/wHaaCEuKRUeR2SqSSH50ySIoCzlPvvPwgEjBBswS1i8Y
LwIDAQABo3sweTAJBgNVHRMEAjAAMCwGCWCGSAGG+EIBDQQfFh1PcGVuU1NMIEdl
bmVyYXRlZCBDZXJ0aWZpY2F0ZTAdBgNVHQ4EFgQU9hp5Vyz4DzyUo2WiO8sx97Kx
atgwHwYDVR0jBBgwFoAUQv8Yen6Zgr1TnLdFIW2+NBFzqY4wDQYJKoZIhvcNAQEL
BQADggEBALxPbKyB5koC2cm0EXCWYdsQCXLxXLzolykVERFmcDSKo7j0+IgYgl0P
Qlk+KNcCWBwd7JNGqt1P6IM2+SG64XP9W+0ArdZakwXLwK7p7YWxjPODBUaIaHyC
fCPd4Il0DvWjyAFc0f4Yc1ZQih2RsQeNocINhisP9LrL6WoXrjINmZ1t9hCHDhIt
OAviERQIWzF4D1IBTydb1mqTsYD8CHTdOaxitu+acSLerLzrh5zeGQ9f1XtVjN7y
jB4A6/uOlMo8vADPjEWal18VfaQdBJ1x7fU3r9rXq01/Qya8ulklKU9S4uChR779
UGAwseQwRpGn38eYpZzC7Iel3sY6lNw=
-----END CERTIFICATE-----
