Certificate:
    Data:
        Version: 3 (0x2)
        Serial Number: 4112 (0x1010)
    Signature Algorithm: sha256WithRSAEncryption
        Issuer: C=91, ST=Hubei, L=Wuhan, O=HUST, OU=CSE, CN=yuanzhongsheng/emailAddress=2841329980@qq.com
        Validity
            Not Before: May 16 08:54:25 2023 GMT
            Not After : May 13 08:54:25 2033 GMT
        Subject: C=91, ST=Hubei, L=Wuhan, O=HUST, OU=CSE, CN=yuanzhongsheng/emailAddress=2841329980@qq.com
        Subject Public Key Info:
            Public Key Algorithm: rsaEncryption
                Public-Key: (2048 bit)
                Modulus:
                    00:c8:48:88:b2:94:e5:20:73:6a:81:56:eb:7f:d5:
                    11:e3:35:7b:53:a7:e7:bf:da:9d:c4:ef:1c:18:5f:
                    84:a8:ae:0c:b0:75:aa:ba:58:5c:45:9d:05:17:f4:
                    0d:7a:83:4c:53:8c:1b:0a:57:71:d1:5e:55:73:13:
                    57:95:5a:dc:20:32:a0:58:67:ee:94:af:8f:b0:60:
                    67:8d:cf:58:c9:6f:c5:17:06:be:7e:11:84:9d:64:
                    1c:cc:0c:a5:99:1f:9b:d5:d5:65:67:97:3a:33:14:
                    70:af:e5:d3:c1:34:91:ba:6c:25:7e:11:ff:26:8c:
                    15:27:54:ad:83:ac:e8:87:5d:ae:14:17:e5:74:b1:
                    b6:13:bb:e9:11:cd:de:f8:43:9e:38:85:ef:bf:d7:
                    34:62:cd:ed:e7:59:6d:64:5d:0e:5d:8f:17:80:ad:
                    11:76:ce:d8:91:93:32:3e:90:a7:bb:5d:ce:13:ca:
                    29:66:3f:32:74:d0:38:a1:12:1d:f6:ef:0a:5c:73:
                    50:9d:cc:90:61:28:1f:c1:b7:34:ad:59:4f:42:e5:
                    19:01:9e:c8:35:89:8c:dd:76:19:f4:39:5c:0a:cd:
                    4d:c3:17:0c:a1:7f:62:da:42:f9:43:07:f7:57:f4:
                    67:50:93:4e:71:a4:de:b4:17:00:d9:7a:30:62:39:
                    22:5f
                Exponent: 65537 (0x10001)
        X509v3 extensions:
            X509v3 Basic Constraints: 
                CA:FALSE
            Netscape Comment: 
                OpenSSL Generated Certificate
            X509v3 Subject Key Identifier: 
                B1:5F:00:B4:E1:04:60:FC:E1:E9:1B:6A:D5:9C:32:16:D1:F2:BA:F4
            X509v3 Authority Key Identifier: 
                keyid:42:FF:18:7A:7E:99:82:BD:53:9C:B7:45:21:6D:BE:34:11:73:A9:8E

    Signature Algorithm: sha256WithRSAEncryption
         10:5d:71:64:0e:a3:7f:57:80:3d:51:9d:35:53:f3:d5:87:f6:
         d9:c9:84:b6:85:d5:3a:04:a3:0c:45:ee:d7:cc:61:b2:1d:4b:
         8e:92:cc:25:af:dd:0c:74:b8:1f:8f:5c:1d:b1:b0:b8:65:14:
         85:56:ee:2e:3b:ff:c5:b8:6a:39:bd:03:69:79:5a:52:6b:09:
         0a:5e:db:c2:b1:a4:ac:c8:27:e3:5f:7a:93:b1:c8:43:a4:1c:
         fe:f6:f8:cc:ed:af:f0:ee:4b:fc:7a:cc:61:32:9f:da:7a:ef:
         2c:b4:75:14:83:62:e4:1e:3e:9e:14:f3:70:2d:20:7c:e4:66:
         bd:ea:95:6b:73:53:ce:c8:8f:3e:96:a6:a9:17:66:90:15:59:
         bc:c7:df:5b:53:f7:23:66:6b:e2:04:8e:1d:c6:34:18:0d:50:
         9c:7d:19:f7:24:49:78:a2:b4:f6:1e:78:d9:93:43:d4:51:a9:
         59:50:ee:ea:4d:de:5e:fe:1d:37:da:d3:70:bd:8d:23:b1:4c:
         d0:2f:c5:6f:a6:b9:0c:41:16:bb:78:d4:c8:f9:6f:b0:66:3f:
         33:4c:f4:9a:91:74:f2:25:b8:46:81:f9:a7:08:09:78:c7:b4:
         b0:88:82:1b:f9:f6:88:a2:77:8e:77:ce:68:e7:57:9b:b7:36:
         5e:22:39:ac
-----BEGIN CERTIFICATE-----
MIIEAzCCAuugAwIBAgICEBAwDQYJKoZIhvcNAQELBQAwgYUxCzAJBgNVBAYTAjkx
MQ4wDAYDVQQIDAVIdWJlaTEOMAwGA1UEBwwFV3VoYW4xDTALBgNVBAoMBEhVU1Qx
DDAKBgNVBAsMA0NTRTEXMBUGA1UEAwwOeXVhbnpob25nc2hlbmcxIDAeBgkqhkiG
9w0BCQEWETI4NDEzMjk5ODBAcXEuY29tMB4XDTIzMDUxNjA4NTQyNVoXDTMzMDUx
MzA4NTQyNVowgYUxCzAJBgNVBAYTAjkxMQ4wDAYDVQQIDAVIdWJlaTEOMAwGA1UE
BwwFV3VoYW4xDTALBgNVBAoMBEhVU1QxDDAKBgNVBAsMA0NTRTEXMBUGA1UEAwwO
eXVhbnpob25nc2hlbmcxIDAeBgkqhkiG9w0BCQEWETI4NDEzMjk5ODBAcXEuY29t
MIIBIjANBgkqhkiG9w0BAQEFAAOCAQ8AMIIBCgKCAQEAyEiIspTlIHNqgVbrf9UR
4zV7U6fnv9qdxO8cGF+EqK4MsHWqulhcRZ0FF/QNeoNMU4wbCldx0V5VcxNXlVrc
IDKgWGfulK+PsGBnjc9YyW/FFwa+fhGEnWQczAylmR+b1dVlZ5c6MxRwr+XTwTSR
umwlfhH/JowVJ1Stg6zoh12uFBfldLG2E7vpEc3e+EOeOIXvv9c0Ys3t51ltZF0O
XY8XgK0Rds7YkZMyPpCnu13OE8opZj8ydNA4oRId9u8KXHNQncyQYSgfwbc0rVlP
QuUZAZ7INYmM3XYZ9DlcCs1NwxcMoX9i2kL5Qwf3V/RnUJNOcaTetBcA2XowYjki
XwIDAQABo3sweTAJBgNVHRMEAjAAMCwGCWCGSAGG+EIBDQQfFh1PcGVuU1NMIEdl
bmVyYXRlZCBDZXJ0aWZpY2F0ZTAdBgNVHQ4EFgQUsV8AtOEEYPzh6Rtq1ZwyFtHy
uvQwHwYDVR0jBBgwFoAUQv8Yen6Zgr1TnLdFIW2+NBFzqY4wDQYJKoZIhvcNAQEL
BQADggEBABBdcWQOo39XgD1RnTVT89WH9tnJhLaF1ToEowxF7tfMYbIdS46SzCWv
3Qx0uB+PXB2xsLhlFIVW7i47/8W4ajm9A2l5WlJrCQpe28KxpKzIJ+NfepOxyEOk
HP72+Mztr/DuS/x6zGEyn9p67yy0dRSDYuQePp4U83AtIHzkZr3qlWtzU87Ijz6W
pqkXZpAVWbzH31tT9yNma+IEjh3GNBgNUJx9GfckSXiitPYeeNmTQ9RRqVlQ7upN
3l7+HTfa03C9jSOxTNAvxW+muQxBFrt41Mj5b7BmPzNM9JqRdPIluEaB+acICXjH
tLCIghv59oiid453zmjnV5u3Nl4iOaw=
-----END CERTIFICATE-----
