Certificate:
    Data:
        Version: 3 (0x2)
        Serial Number: 4113 (0x1011)
    Signature Algorithm: sha256WithRSAEncryption
        Issuer: C=91, ST=Hubei, L=Wuhan, O=HUST, OU=CSE, CN=yuanzhongsheng/emailAddress=2841329980@qq.com
        Validity
            Not Before: May 27 20:39:29 2023 GMT
            Not After : May 24 20:39:29 2033 GMT
        Subject: C=91, ST=Hubei, L=Wuhan, O=HUST, OU=CSE, CN=yuanzhongsheng/emailAddress=2841329980@qq.com
        Subject Public Key Info:
            Public Key Algorithm: rsaEncryption
                Public-Key: (2048 bit)
                Modulus:
                    00:cd:19:95:b1:45:eb:98:85:fa:a1:ff:ea:8c:d6:
                    6c:7e:3c:17:cd:33:99:c5:f6:7d:ab:2f:a3:58:f0:
                    88:02:78:9a:dd:2c:2e:96:db:5e:5d:47:0c:aa:72:
                    c3:2c:3e:9a:b3:6a:b0:3e:5d:60:bf:9f:d5:4c:e5:
                    a7:f1:72:d9:b0:d0:3d:4b:1e:f4:06:98:54:33:fc:
                    86:d1:ac:86:77:41:0b:d5:70:f5:fd:47:e5:e6:95:
                    ee:f6:3e:fe:28:e8:fc:2f:ab:89:39:c4:23:e2:47:
                    d3:cf:08:64:e4:5d:1d:b0:af:b5:eb:af:0c:9a:a3:
                    5f:bb:16:0d:0b:79:4b:4a:2a:b7:2c:46:6c:db:7b:
                    3d:52:54:cf:39:9e:63:64:1c:8c:50:c2:67:f1:f3:
                    bc:cb:97:5e:00:b6:ac:98:5a:77:96:63:04:6d:d5:
                    b1:d2:1a:c9:f1:08:83:e8:05:b5:38:75:16:be:46:
                    50:90:46:b1:58:2a:7f:b5:c8:2a:52:09:cb:5a:18:
                    87:89:72:82:d8:97:97:49:b2:bf:f7:e1:46:2b:5f:
                    4f:94:ea:aa:d0:4f:22:7c:e5:61:38:63:8b:69:02:
                    14:74:6b:e9:83:76:72:b2:67:80:80:2e:93:50:a0:
                    f0:1f:3f:00:a5:88:5b:28:41:7d:04:41:44:d3:00:
                    8c:f3
                Exponent: 65537 (0x10001)
        X509v3 extensions:
            X509v3 Basic Constraints: 
                CA:FALSE
            Netscape Comment: 
                OpenSSL Generated Certificate
            X509v3 Subject Key Identifier: 
                CA:3C:E3:A2:37:36:E1:78:A3:7F:A2:7F:7F:FE:07:01:B8:48:81:DB
            X509v3 Authority Key Identifier: 
                keyid:9B:0E:BA:A9:94:E0:AF:2E:30:32:E3:15:F2:F7:99:7A:43:7A:43:6A

    Signature Algorithm: sha256WithRSAEncryption
         5e:8d:8f:16:f4:ca:70:12:1f:56:5e:8a:c7:c1:25:63:de:06:
         44:5a:6f:99:8c:5d:ba:e4:1d:5c:5d:c9:80:32:0d:b8:0e:a0:
         3f:5f:47:5b:f3:03:7f:f8:71:22:7f:a3:ce:db:59:91:9e:9b:
         a1:9e:b1:46:54:3e:90:08:f1:43:5c:e7:42:96:38:86:1d:55:
         37:04:cc:1e:64:61:34:01:e8:a4:f9:71:21:41:6f:97:46:51:
         21:30:fc:f0:41:fb:b2:af:dd:1e:78:15:0b:5e:f3:56:73:16:
         37:a0:bc:49:4f:48:07:cb:e3:3a:b5:16:42:e3:25:be:c8:71:
         3e:8c:b3:29:32:63:e5:f7:86:42:71:91:ff:19:c6:15:ba:b8:
         73:5f:06:f3:6d:5b:8f:ca:05:c4:bf:00:45:a4:6b:5d:fc:5d:
         14:8d:45:11:52:80:fa:7e:90:c9:21:8b:57:25:64:81:71:af:
         46:42:71:ba:af:c8:6a:fe:4a:c6:33:90:9e:9f:87:58:c3:82:
         49:26:f3:94:f1:5e:af:15:d8:62:6d:34:b2:6f:6d:de:d7:58:
         17:69:02:0b:74:0b:04:47:c5:4c:22:73:9a:8e:5d:f0:5f:c7:
         5c:67:0a:a9:e4:d4:e3:d1:24:6c:f1:2a:0b:ba:14:06:9c:55:
         d3:f2:bc:81
-----BEGIN CERTIFICATE-----
MIIEAzCCAuugAwIBAgICEBEwDQYJKoZIhvcNAQELBQAwgYUxCzAJBgNVBAYTAjkx
MQ4wDAYDVQQIDAVIdWJlaTEOMAwGA1UEBwwFV3VoYW4xDTALBgNVBAoMBEhVU1Qx
DDAKBgNVBAsMA0NTRTEXMBUGA1UEAwwOeXVhbnpob25nc2hlbmcxIDAeBgkqhkiG
9w0BCQEWETI4NDEzMjk5ODBAcXEuY29tMB4XDTIzMDUyNzIwMzkyOVoXDTMzMDUy
NDIwMzkyOVowgYUxCzAJBgNVBAYTAjkxMQ4wDAYDVQQIDAVIdWJlaTEOMAwGA1UE
BwwFV3VoYW4xDTALBgNVBAoMBEhVU1QxDDAKBgNVBAsMA0NTRTEXMBUGA1UEAwwO
eXVhbnpob25nc2hlbmcxIDAeBgkqhkiG9w0BCQEWETI4NDEzMjk5ODBAcXEuY29t
MIIBIjANBgkqhkiG9w0BAQEFAAOCAQ8AMIIBCgKCAQEAzRmVsUXrmIX6of/qjNZs
fjwXzTOZxfZ9qy+jWPCIAnia3SwultteXUcMqnLDLD6as2qwPl1gv5/VTOWn8XLZ
sNA9Sx70BphUM/yG0ayGd0EL1XD1/Ufl5pXu9j7+KOj8L6uJOcQj4kfTzwhk5F0d
sK+1668MmqNfuxYNC3lLSiq3LEZs23s9UlTPOZ5jZByMUMJn8fO8y5deALasmFp3
lmMEbdWx0hrJ8QiD6AW1OHUWvkZQkEaxWCp/tcgqUgnLWhiHiXKC2JeXSbK/9+FG
K19PlOqq0E8ifOVhOGOLaQIUdGvpg3ZysmeAgC6TUKDwHz8ApYhbKEF9BEFE0wCM
8wIDAQABo3sweTAJBgNVHRMEAjAAMCwGCWCGSAGG+EIBDQQfFh1PcGVuU1NMIEdl
bmVyYXRlZCBDZXJ0aWZpY2F0ZTAdBgNVHQ4EFgQUyjzjojc24Xijf6J/f/4HAbhI
gdswHwYDVR0jBBgwFoAUmw66qZTgry4wMuMV8veZekN6Q2owDQYJKoZIhvcNAQEL
BQADggEBAF6Njxb0ynASH1ZeisfBJWPeBkRab5mMXbrkHVxdyYAyDbgOoD9fR1vz
A3/4cSJ/o87bWZGem6GesUZUPpAI8UNc50KWOIYdVTcEzB5kYTQB6KT5cSFBb5dG
USEw/PBB+7Kv3R54FQte81ZzFjegvElPSAfL4zq1FkLjJb7IcT6MsykyY+X3hkJx
kf8ZxhW6uHNfBvNtW4/KBcS/AEWka138XRSNRRFSgPp+kMkhi1clZIFxr0ZCcbqv
yGr+SsYzkJ6fh1jDgkkm85TxXq8V2GJtNLJvbd7XWBdpAgt0CwRHxUwic5qOXfBf
x1xnCqnk1OPRJGzxKgu6FAacVdPyvIE=
-----END CERTIFICATE-----
