Certificate:
    Data:
        Version: 3 (0x2)
        Serial Number: 4114 (0x1012)
    Signature Algorithm: sha256WithRSAEncryption
        Issuer: C=91, ST=Hubei, L=Wuhan, O=HUST, OU=CSE, CN=yuanzhongsheng/emailAddress=2841329980@qq.com
        Validity
            Not Before: May 27 20:39:36 2023 GMT
            Not After : May 24 20:39:36 2033 GMT
        Subject: C=91, ST=Hubei, L=Wuhan, O=HUST, OU=CSE, CN=yuanzhongsheng/emailAddress=2841329980@qq.com
        Subject Public Key Info:
            Public Key Algorithm: rsaEncryption
                Public-Key: (2048 bit)
                Modulus:
                    00:b0:0c:98:c0:8c:2e:6e:df:c8:a3:6f:d5:97:c1:
                    bf:74:63:f7:dd:8a:65:3b:dd:e2:88:be:7a:26:e2:
                    ac:99:7a:5f:b9:90:a3:7b:b3:7f:62:88:8c:89:f6:
                    fd:a5:c9:b7:17:a2:4e:be:b3:ad:ed:7d:c8:89:d5:
                    69:87:69:34:ac:76:cf:74:52:b6:ec:2e:bf:6c:7e:
                    e5:d1:2a:4b:df:4a:f4:f1:2c:7b:03:31:92:fb:68:
                    5f:c3:a9:52:5f:5e:7f:72:d3:db:22:c5:b7:8e:0c:
                    5b:8b:20:ca:6e:e2:34:bf:9e:13:8e:f8:1e:4d:cb:
                    5f:df:2a:71:7a:9b:7b:9e:70:fe:a4:26:d4:34:72:
                    1b:d7:12:9b:4f:cd:7a:47:ff:6b:51:13:01:68:4d:
                    9c:49:28:47:65:ca:5d:94:30:75:f3:37:41:1f:45:
                    3b:99:eb:cf:19:ed:fa:5f:bd:bd:e9:0d:c2:63:57:
                    e7:14:d4:41:97:24:c4:a1:e0:85:db:1d:20:f9:8e:
                    f2:cc:12:f5:cf:6c:a5:0f:94:9e:a1:99:7e:76:c6:
                    9c:ca:29:a1:aa:4b:82:54:61:44:99:be:cd:85:33:
                    5e:b5:ac:ba:fa:8a:4f:fb:81:0d:17:c8:9b:9b:8d:
                    67:4e:9b:5b:2e:77:61:82:87:8f:0d:84:a0:5c:0e:
                    df:b1
                Exponent: 65537 (0x10001)
        X509v3 extensions:
            X509v3 Basic Constraints: 
                CA:FALSE
            Netscape Comment: 
                OpenSSL Generated Certificate
            X509v3 Subject Key Identifier: 
                C2:EE:7A:4B:D9:60:97:83:E4:B7:D7:15:78:46:83:56:36:38:16:22
            X509v3 Authority Key Identifier: 
                keyid:9B:0E:BA:A9:94:E0:AF:2E:30:32:E3:15:F2:F7:99:7A:43:7A:43:6A

    Signature Algorithm: sha256WithRSAEncryption
         33:33:b0:27:bf:cd:99:77:27:19:9c:7d:76:31:63:e5:ad:d2:
         28:04:6c:7d:56:2f:b4:26:ca:28:d8:d5:52:e5:98:81:8e:88:
         36:89:ba:42:2d:1c:b2:40:d4:cf:bc:82:e3:59:aa:93:fd:2b:
         40:ff:2f:3f:30:fe:eb:12:06:91:87:91:ea:9b:b3:c0:c3:aa:
         21:e2:8a:0d:f9:8e:07:3d:26:f5:a6:6b:5c:6b:7d:91:90:fb:
         b1:12:78:19:d4:7e:c8:8f:6c:eb:ba:6a:91:c3:2b:21:6c:57:
         55:17:f4:8b:70:fc:1e:38:0a:aa:3d:cc:6f:70:e1:88:67:7d:
         f3:69:7d:10:31:a3:5e:23:62:9f:58:5d:11:f9:35:f5:8f:c7:
         95:fb:bc:fc:f9:6c:9a:1e:ac:22:c9:88:0d:42:7c:3e:dc:d2:
         bb:16:09:e5:19:2e:b5:b8:f6:74:73:e3:3b:cb:24:8f:36:17:
         20:3f:44:25:de:1e:2d:b0:b5:f2:27:7b:40:5b:d9:68:52:11:
         c1:66:ab:20:fb:db:ec:dd:c5:c9:8c:8c:35:5c:9f:c3:b7:a4:
         33:f7:8e:19:15:7e:c3:19:d1:ec:54:ee:4c:ad:18:fc:0f:be:
         03:44:9a:04:1a:04:97:d7:ab:76:39:2d:9a:c9:ef:ce:fc:6d:
         70:51:47:6f
-----BEGIN CERTIFICATE-----
MIIEAzCCAuugAwIBAgICEBIwDQYJKoZIhvcNAQELBQAwgYUxCzAJBgNVBAYTAjkx
MQ4wDAYDVQQIDAVIdWJlaTEOMAwGA1UEBwwFV3VoYW4xDTALBgNVBAoMBEhVU1Qx
DDAKBgNVBAsMA0NTRTEXMBUGA1UEAwwOeXVhbnpob25nc2hlbmcxIDAeBgkqhkiG
9w0BCQEWETI4NDEzMjk5ODBAcXEuY29tMB4XDTIzMDUyNzIwMzkzNloXDTMzMDUy
NDIwMzkzNlowgYUxCzAJBgNVBAYTAjkxMQ4wDAYDVQQIDAVIdWJlaTEOMAwGA1UE
BwwFV3VoYW4xDTALBgNVBAoMBEhVU1QxDDAKBgNVBAsMA0NTRTEXMBUGA1UEAwwO
eXVhbnpob25nc2hlbmcxIDAeBgkqhkiG9w0BCQEWETI4NDEzMjk5ODBAcXEuY29t
MIIBIjANBgkqhkiG9w0BAQEFAAOCAQ8AMIIBCgKCAQEAsAyYwIwubt/Io2/Vl8G/
dGP33YplO93iiL56JuKsmXpfuZCje7N/YoiMifb9pcm3F6JOvrOt7X3IidVph2k0
rHbPdFK27C6/bH7l0SpL30r08Sx7AzGS+2hfw6lSX15/ctPbIsW3jgxbiyDKbuI0
v54TjvgeTctf3ypxept7nnD+pCbUNHIb1xKbT816R/9rURMBaE2cSShHZcpdlDB1
8zdBH0U7mevPGe36X7296Q3CY1fnFNRBlyTEoeCF2x0g+Y7yzBL1z2ylD5SeoZl+
dsacyimhqkuCVGFEmb7NhTNetay6+opP+4ENF8ibm41nTptbLndhgoePDYSgXA7f
sQIDAQABo3sweTAJBgNVHRMEAjAAMCwGCWCGSAGG+EIBDQQfFh1PcGVuU1NMIEdl
bmVyYXRlZCBDZXJ0aWZpY2F0ZTAdBgNVHQ4EFgQUwu56S9lgl4Pkt9cVeEaDVjY4
FiIwHwYDVR0jBBgwFoAUmw66qZTgry4wMuMV8veZekN6Q2owDQYJKoZIhvcNAQEL
BQADggEBADMzsCe/zZl3JxmcfXYxY+Wt0igEbH1WL7QmyijY1VLlmIGOiDaJukIt
HLJA1M+8guNZqpP9K0D/Lz8w/usSBpGHkeqbs8DDqiHiig35jgc9JvWma1xrfZGQ
+7ESeBnUfsiPbOu6apHDKyFsV1UX9Itw/B44Cqo9zG9w4YhnffNpfRAxo14jYp9Y
XRH5NfWPx5X7vPz5bJoerCLJiA1CfD7c0rsWCeUZLrW49nRz4zvLJI82FyA/RCXe
Hi2wtfIne0Bb2WhSEcFmqyD72+zdxcmMjDVcn8O3pDP3jhkVfsMZ0exU7kytGPwP
vgNEmgQaBJfXq3Y5LZrJ7878bXBRR28=
-----END CERTIFICATE-----
