Certificate:
    Data:
        Version: 3 (0x2)
        Serial Number: 4115 (0x1013)
    Signature Algorithm: sha256WithRSAEncryption
        Issuer: C=91, ST=er, L=wr, O=rt, OU=e, CN=gr/emailAddress=wer
        Validity
            Not Before: Dec 31 16:04:57 2022 GMT
            Not After : Dec 28 16:04:57 2032 GMT
        Subject: C=91, ST=ef, L=rh, O=ww, OU=r, CN=hr/emailAddress=sdf
        Subject Public Key Info:
            Public Key Algorithm: rsaEncryption
                Public-Key: (2048 bit)
                Modulus:
                    00:e2:b0:e9:6f:23:22:0f:62:6a:db:5a:c0:71:7a:
                    f1:13:1c:c4:43:20:e5:62:f5:fb:d5:eb:44:a5:f3:
                    e3:4c:a3:d8:1e:43:93:b2:92:19:ef:8c:6e:d5:e4:
                    1d:f6:fd:75:17:4f:dc:5a:d7:b1:11:fe:9f:78:3b:
                    ff:4a:86:76:7f:d6:c4:e9:a1:14:a3:c7:03:d2:42:
                    5e:0c:c7:0f:d1:d3:6c:ad:a0:c3:38:d0:0e:bd:ad:
                    dc:52:da:71:1e:25:14:43:12:34:88:20:34:f2:e1:
                    94:56:bf:fd:be:a7:0c:72:a0:00:09:73:72:f9:d7:
                    7c:e1:48:98:eb:11:37:47:95:5e:b0:9a:7b:d1:df:
                    d0:a5:1f:0a:72:3a:81:36:45:ec:c9:e0:ab:b0:0f:
                    08:9b:30:ba:e6:a8:9c:e1:6d:03:60:7a:23:b0:ec:
                    f1:62:6c:3a:05:69:59:f6:d2:dc:7b:c9:da:b5:f2:
                    a6:65:58:0f:b8:7e:0f:6d:ec:a6:7b:ae:40:85:39:
                    75:7e:5a:22:b5:0c:d5:00:ca:d2:0c:f0:8e:0a:53:
                    ca:f6:09:d4:af:70:72:bc:07:d6:91:5e:ac:1a:9e:
                    10:5a:8d:19:94:49:73:c8:20:42:6e:ca:ad:56:a4:
                    62:86:68:d6:db:57:ab:88:bb:45:af:aa:64:c5:39:
                    aa:55
                Exponent: 65537 (0x10001)
        X509v3 extensions:
            X509v3 Basic Constraints: 
                CA:FALSE
            Netscape Comment: 
                OpenSSL Generated Certificate
            X509v3 Subject Key Identifier: 
                9B:C6:2A:35:39:68:46:E5:46:D0:36:2A:86:0B:E1:D0:A3:11:0D:94
            X509v3 Authority Key Identifier: 
                keyid:AF:6A:B6:A6:B9:F9:3E:44:9A:3F:66:49:FD:26:F1:AE:FB:30:7A:51

    Signature Algorithm: sha256WithRSAEncryption
         3e:56:96:f7:cd:de:fc:31:aa:3d:7d:79:c9:67:10:37:b8:49:
         be:74:bd:33:fe:5a:b2:7d:3b:31:a3:26:5b:8d:ed:49:74:bf:
         e2:f4:0f:41:ea:c9:f8:73:31:1c:20:af:3d:88:47:c9:fe:3d:
         53:dd:fc:10:82:78:02:62:df:13:68:48:0b:c7:95:82:5e:80:
         af:f8:4d:32:24:87:04:88:39:db:95:b4:52:73:24:36:58:ac:
         3e:ad:fa:2c:d8:45:99:6c:f7:97:2e:2c:b8:7f:a6:9a:f4:ed:
         0f:bb:4d:03:bf:4e:4b:6f:60:ec:c4:4b:4d:ed:d8:03:f0:d2:
         c2:7a:71:ab:7d:6f:e3:73:f4:fb:cd:98:d4:81:30:d2:59:1c:
         cd:fe:98:20:57:fd:8f:3a:0d:17:d7:8b:11:d0:0f:fe:d7:ba:
         7d:b0:ad:b8:e7:b1:1c:6d:e7:c9:06:30:7d:0e:91:32:5a:6d:
         d2:eb:0d:51:ac:49:e3:14:f3:91:a9:29:52:72:ba:66:d2:15:
         cf:06:eb:0c:19:29:4b:21:60:4d:4c:c2:a4:5b:7a:62:21:bd:
         68:44:5c:eb:b0:aa:73:cd:44:4c:8c:71:cc:a7:a2:d6:94:a4:
         bd:df:cb:28:ce:49:d9:33:60:71:0f:9b:9a:98:58:d4:4d:7c:
         84:ab:1a:4b
-----BEGIN CERTIFICATE-----
MIIDuTCCAqGgAwIBAgICEBMwDQYJKoZIhvcNAQELBQAwYTELMAkGA1UEBhMCOTEx
CzAJBgNVBAgMAmVyMQswCQYDVQQHDAJ3cjELMAkGA1UECgwCcnQxCjAIBgNVBAsM
AWUxCzAJBgNVBAMMAmdyMRIwEAYJKoZIhvcNAQkBFgN3ZXIwHhcNMjIxMjMxMTYw
NDU3WhcNMzIxMjI4MTYwNDU3WjBhMQswCQYDVQQGEwI5MTELMAkGA1UECAwCZWYx
CzAJBgNVBAcMAnJoMQswCQYDVQQKDAJ3dzEKMAgGA1UECwwBcjELMAkGA1UEAwwC
aHIxEjAQBgkqhkiG9w0BCQEWA3NkZjCCASIwDQYJKoZIhvcNAQEBBQADggEPADCC
AQoCggEBAOKw6W8jIg9iattawHF68RMcxEMg5WL1+9XrRKXz40yj2B5Dk7KSGe+M
btXkHfb9dRdP3FrXsRH+n3g7/0qGdn/WxOmhFKPHA9JCXgzHD9HTbK2gwzjQDr2t
3FLacR4lFEMSNIggNPLhlFa//b6nDHKgAAlzcvnXfOFImOsRN0eVXrCae9Hf0KUf
CnI6gTZF7Mngq7APCJswuuaonOFtA2B6I7Ds8WJsOgVpWfbS3HvJ2rXypmVYD7h+
D23spnuuQIU5dX5aIrUM1QDK0gzwjgpTyvYJ1K9wcrwH1pFerBqeEFqNGZRJc8gg
Qm7KrVakYoZo1ttXq4i7Ra+qZMU5qlUCAwEAAaN7MHkwCQYDVR0TBAIwADAsBglg
hkgBhvhCAQ0EHxYdT3BlblNTTCBHZW5lcmF0ZWQgQ2VydGlmaWNhdGUwHQYDVR0O
BBYEFJvGKjU5aEblRtA2KoYL4dCjEQ2UMB8GA1UdIwQYMBaAFK9qtqa5+T5Emj9m
Sf0m8a77MHpRMA0GCSqGSIb3DQEBCwUAA4IBAQA+Vpb3zd78Mao9fXnJZxA3uEm+
dL0z/lqyfTsxoyZbje1JdL/i9A9B6sn4czEcIK89iEfJ/j1T3fwQgngCYt8TaEgL
x5WCXoCv+E0yJIcEiDnblbRScyQ2WKw+rfos2EWZbPeXLiy4f6aa9O0Pu00Dv05L
b2DsxEtN7dgD8NLCenGrfW/jc/T7zZjUgTDSWRzN/pggV/2POg0X14sR0A/+17p9
sK2457EcbefJBjB9DpEyWm3S6w1RrEnjFPORqSlScrpm0hXPBusMGSlLIWBNTMKk
W3piIb1oRFzrsKpzzURMjHHMp6LWlKS938sozknZM2BxD5uamFjUTXyEqxpL
-----END CERTIFICATE-----
