Certificate:
    Data:
        Version: 3 (0x2)
        Serial Number: 4116 (0x1014)
    Signature Algorithm: sha256WithRSAEncryption
        Issuer: C=91, ST=er, L=wr, O=rt, OU=e, CN=gr/emailAddress=wer
        Validity
            Not Before: Dec 31 16:05:01 2022 GMT
            Not After : Dec 28 16:05:01 2032 GMT
        Subject: C=43, ST=ed, L=w, O=rg, OU=erf, CN=wer/emailAddress=t4
        Subject Public Key Info:
            Public Key Algorithm: rsaEncryption
                Public-Key: (2048 bit)
                Modulus:
                    00:aa:8b:5f:69:15:a4:ac:0a:bf:97:7f:aa:7d:ce:
                    6e:2c:ed:7d:80:4c:4f:1f:7c:99:71:99:45:15:68:
                    05:1d:d6:73:04:da:18:f9:4a:cf:40:8c:e2:27:2b:
                    18:f0:4d:02:7b:8f:2b:61:96:0b:03:a8:8c:55:a1:
                    69:aa:d7:db:a0:33:13:05:20:08:e4:eb:7f:83:5c:
                    df:ae:12:7e:1b:64:31:8d:d1:ff:dc:05:6a:17:5e:
                    3a:f6:cf:96:21:c9:98:77:af:d4:04:ac:48:4a:f1:
                    c6:36:ea:81:0e:32:c9:b8:7b:29:43:d1:db:0f:1e:
                    5a:42:37:61:0a:4e:28:20:dd:f7:cd:f3:be:7b:dc:
                    8e:27:4c:a8:f3:4d:0f:b4:5e:82:23:f7:ef:d0:de:
                    f7:2c:ac:90:82:3b:42:80:c1:67:e8:6a:70:09:cf:
                    a2:3c:a9:5b:22:a1:57:ef:32:5c:54:05:90:3d:3e:
                    1a:5d:a1:6b:e3:d6:9c:17:fa:a5:58:d6:c7:0a:7b:
                    c0:3d:51:bd:1e:4a:51:69:ee:ac:0a:3b:91:84:38:
                    06:91:08:27:15:8c:ee:b6:c5:b6:b6:29:6c:45:4f:
                    40:09:1f:71:6f:15:59:95:6d:41:84:6c:51:98:fb:
                    e6:19:6e:01:81:b1:16:97:33:0e:27:2a:8a:7b:f2:
                    89:d3
                Exponent: 65537 (0x10001)
        X509v3 extensions:
            X509v3 Basic Constraints: 
                CA:FALSE
            Netscape Comment: 
                OpenSSL Generated Certificate
            X509v3 Subject Key Identifier: 
                A2:16:05:54:94:8C:7D:63:70:B4:CC:F8:88:48:0F:62:4E:20:30:80
            X509v3 Authority Key Identifier: 
                keyid:AF:6A:B6:A6:B9:F9:3E:44:9A:3F:66:49:FD:26:F1:AE:FB:30:7A:51

    Signature Algorithm: sha256WithRSAEncryption
         b8:aa:7e:44:ce:f0:e8:50:eb:22:0b:21:b2:e2:9d:14:f7:df:
         a0:87:07:5c:c8:41:85:42:a3:7c:c9:65:4b:33:97:0c:5e:37:
         b3:18:66:0a:6a:bd:17:7a:63:ce:a6:88:df:cb:5f:73:b9:4d:
         ad:da:98:1b:0b:f1:45:b4:05:41:d2:63:16:ea:5b:30:02:eb:
         b5:17:68:6c:33:91:6d:21:73:41:f9:51:e0:83:7f:ed:8e:fc:
         0f:9a:9e:92:01:6a:1f:8c:50:3e:4e:3c:a0:4a:9a:6d:22:6e:
         83:b7:25:86:42:5c:31:50:4b:8a:fa:f2:da:ff:7d:b7:cc:ef:
         d6:1e:ef:9b:62:74:20:bd:d7:e2:dc:bc:c1:70:ae:89:14:86:
         80:84:31:ef:50:8a:31:ce:fd:83:6a:ec:f5:64:41:88:10:82:
         c6:04:24:d4:42:be:11:dc:ac:7a:00:40:e2:f8:77:83:b4:fa:
         86:df:c2:55:32:c1:0b:f2:21:7b:0a:75:75:40:10:d7:cb:15:
         5a:03:c8:31:dc:57:e9:6b:c0:f6:5f:e6:b8:0c:dd:da:10:4f:
         29:ca:65:d8:3e:44:84:a5:77:f8:e2:26:e0:73:cb:80:51:bd:
         15:9d:9e:ea:7f:cf:c6:dc:d8:55:48:39:16:aa:9e:ba:a2:1e:
         f5:b6:da:6c
-----BEGIN CERTIFICATE-----
MIIDujCCAqKgAwIBAgICEBQwDQYJKoZIhvcNAQELBQAwYTELMAkGA1UEBhMCOTEx
CzAJBgNVBAgMAmVyMQswCQYDVQQHDAJ3cjELMAkGA1UECgwCcnQxCjAIBgNVBAsM
AWUxCzAJBgNVBAMMAmdyMRIwEAYJKoZIhvcNAQkBFgN3ZXIwHhcNMjIxMjMxMTYw
NTAxWhcNMzIxMjI4MTYwNTAxWjBiMQswCQYDVQQGEwI0MzELMAkGA1UECAwCZWQx
CjAIBgNVBAcMAXcxCzAJBgNVBAoMAnJnMQwwCgYDVQQLDANlcmYxDDAKBgNVBAMM
A3dlcjERMA8GCSqGSIb3DQEJARYCdDQwggEiMA0GCSqGSIb3DQEBAQUAA4IBDwAw
ggEKAoIBAQCqi19pFaSsCr+Xf6p9zm4s7X2ATE8ffJlxmUUVaAUd1nME2hj5Ss9A
jOInKxjwTQJ7jythlgsDqIxVoWmq19ugMxMFIAjk63+DXN+uEn4bZDGN0f/cBWoX
Xjr2z5YhyZh3r9QErEhK8cY26oEOMsm4eylD0dsPHlpCN2EKTigg3ffN87573I4n
TKjzTQ+0XoIj9+/Q3vcsrJCCO0KAwWfoanAJz6I8qVsioVfvMlxUBZA9PhpdoWvj
1pwX+qVY1scKe8A9Ub0eSlFp7qwKO5GEOAaRCCcVjO62xba2KWxFT0AJH3FvFVmV
bUGEbFGY++YZbgGBsRaXMw4nKop78onTAgMBAAGjezB5MAkGA1UdEwQCMAAwLAYJ
YIZIAYb4QgENBB8WHU9wZW5TU0wgR2VuZXJhdGVkIENlcnRpZmljYXRlMB0GA1Ud
DgQWBBSiFgVUlIx9Y3C0zPiISA9iTiAwgDAfBgNVHSMEGDAWgBSvaramufk+RJo/
Zkn9JvGu+zB6UTANBgkqhkiG9w0BAQsFAAOCAQEAuKp+RM7w6FDrIgshsuKdFPff
oIcHXMhBhUKjfMllSzOXDF43sxhmCmq9F3pjzqaI38tfc7lNrdqYGwvxRbQFQdJj
FupbMALrtRdobDORbSFzQflR4IN/7Y78D5qekgFqH4xQPk48oEqabSJug7clhkJc
MVBLivry2v99t8zv1h7vm2J0IL3X4ty8wXCuiRSGgIQx71CKMc79g2rs9WRBiBCC
xgQk1EK+EdysegBA4vh3g7T6ht/CVTLBC/Ihewp1dUAQ18sVWgPIMdxX6WvA9l/m
uAzd2hBPKcpl2D5EhKV3+OIm4HPLgFG9FZ2e6n/PxtzYVUg5FqqeuqIe9bbabA==
-----END CERTIFICATE-----
