Certificate:
    Data:
        Version: 3 (0x2)
        Serial Number: 4117 (0x1015)
    Signature Algorithm: sha256WithRSAEncryption
        Issuer: C=72, ST=ger, L=erg, O=ert, OU=ht, CN=yh/emailAddress=terg
        Validity
            Not Before: May 28 19:32:35 2023 GMT
            Not After : May 25 19:32:35 2033 GMT
        Subject: C=23, ST=dfg, L=er, O=erg, OU=erg, CN=erg/emailAddress=er
        Subject Public Key Info:
            Public Key Algorithm: rsaEncryption
                Public-Key: (2048 bit)
                Modulus:
                    00:bf:8a:7c:a5:c4:49:ba:1b:a9:8e:76:c7:08:04:
                    e5:7d:e6:a3:25:0c:39:64:8d:25:7f:c1:53:57:e0:
                    21:e0:23:b9:13:04:e6:4f:ca:ba:b9:03:17:dc:b8:
                    86:46:83:04:4c:cc:1c:2a:0e:f8:5a:11:5b:62:27:
                    20:53:12:4e:2f:bc:97:ec:06:1f:29:5b:ba:22:8f:
                    05:31:63:e3:e2:da:24:0f:13:e4:3b:5f:09:90:49:
                    a7:ab:4f:01:1c:83:21:08:e2:16:6b:c2:c4:11:51:
                    1c:fd:b1:3d:3f:66:18:b1:77:c4:0d:fe:a2:7c:3f:
                    a3:f7:70:d4:68:21:e4:c0:e5:c5:ac:a0:69:23:25:
                    44:e7:18:7b:ca:e7:20:21:4f:25:2a:2e:5d:a2:82:
                    c7:f8:93:bd:10:79:c4:cd:76:94:3f:86:42:3d:cb:
                    24:0e:5e:9c:bf:fe:d1:1d:c8:a1:d7:27:44:4f:1e:
                    65:cb:30:c1:58:39:97:d2:69:5c:8b:82:ee:99:ee:
                    12:06:f7:d5:24:80:92:01:d3:17:13:cc:be:56:f4:
                    8a:ae:26:45:2d:72:3f:e1:2d:af:8a:60:d8:fe:36:
                    5e:c8:a0:9c:93:17:55:d1:d3:7c:2d:87:b8:da:00:
                    f9:80:23:06:f2:34:7c:98:a9:ae:4c:2c:e1:ec:ba:
                    59:57
                Exponent: 65537 (0x10001)
        X509v3 extensions:
            X509v3 Basic Constraints: 
                CA:FALSE
            Netscape Comment: 
                OpenSSL Generated Certificate
            X509v3 Subject Key Identifier: 
                45:B6:ED:05:D9:AF:44:65:31:E4:34:B1:BB:C9:7D:56:7F:2E:7C:8A
            X509v3 Authority Key Identifier: 
                keyid:B0:3D:E0:31:4C:3F:AA:A9:21:A0:D0:5F:95:A0:07:FA:17:E5:04:76

    Signature Algorithm: sha256WithRSAEncryption
         74:ad:55:44:f7:b1:7e:71:55:f2:ed:88:89:44:1c:44:a4:02:
         86:82:a9:59:5e:0a:11:0a:5b:80:53:21:84:45:b9:e2:ca:e8:
         06:cb:98:52:07:7d:88:94:a6:da:eb:10:b9:7e:41:d6:f1:d2:
         44:a6:ec:9f:03:22:c3:73:d4:64:4b:b1:bd:66:5b:88:ca:c4:
         ef:56:c9:6b:4c:c4:53:bb:86:c1:7e:33:2f:c8:a1:34:cc:4b:
         f7:4a:13:b3:4f:13:71:60:38:e0:71:f2:0d:8d:98:5c:fe:3c:
         b3:2c:f9:44:bb:cd:bd:83:b2:97:6f:41:07:c0:05:3a:a0:a6:
         32:38:8b:68:34:42:63:2f:19:26:ae:9b:76:20:e9:d3:d1:0c:
         e0:a3:63:14:ea:47:ce:6f:98:3a:19:86:4b:33:a0:c6:07:c6:
         37:2a:0d:67:d4:53:cb:a6:fb:44:97:db:83:a9:f6:d9:43:0c:
         3e:59:dc:a4:ba:a7:42:a6:cd:7c:d8:3a:00:ba:00:b8:52:74:
         3c:ac:10:e1:5b:0e:11:7d:4e:17:24:1e:a8:a1:cb:ae:bd:24:
         01:82:0f:34:20:2e:89:0b:7c:e0:b1:4f:48:52:be:c2:8f:67:
         24:dd:52:55:66:71:d2:0e:0b:27:77:59:ea:6f:d7:9e:98:c2:
         ed:37:89:4d
-----BEGIN CERTIFICATE-----
MIIDwjCCAqqgAwIBAgICEBUwDQYJKoZIhvcNAQELBQAwZjELMAkGA1UEBhMCNzIx
DDAKBgNVBAgMA2dlcjEMMAoGA1UEBwwDZXJnMQwwCgYDVQQKDANlcnQxCzAJBgNV
BAsMAmh0MQswCQYDVQQDDAJ5aDETMBEGCSqGSIb3DQEJARYEdGVyZzAeFw0yMzA1
MjgxOTMyMzVaFw0zMzA1MjUxOTMyMzVaMGUxCzAJBgNVBAYTAjIzMQwwCgYDVQQI
DANkZmcxCzAJBgNVBAcMAmVyMQwwCgYDVQQKDANlcmcxDDAKBgNVBAsMA2VyZzEM
MAoGA1UEAwwDZXJnMREwDwYJKoZIhvcNAQkBFgJlcjCCASIwDQYJKoZIhvcNAQEB
BQADggEPADCCAQoCggEBAL+KfKXESbobqY52xwgE5X3moyUMOWSNJX/BU1fgIeAj
uRME5k/KurkDF9y4hkaDBEzMHCoO+FoRW2InIFMSTi+8l+wGHylbuiKPBTFj4+La
JA8T5DtfCZBJp6tPARyDIQjiFmvCxBFRHP2xPT9mGLF3xA3+onw/o/dw1Ggh5MDl
xaygaSMlROcYe8rnICFPJSouXaKCx/iTvRB5xM12lD+GQj3LJA5enL/+0R3Iodcn
RE8eZcswwVg5l9JpXIuC7pnuEgb31SSAkgHTFxPMvlb0iq4mRS1yP+Etr4pg2P42
XsignJMXVdHTfC2HuNoA+YAjBvI0fJiprkws4ey6WVcCAwEAAaN7MHkwCQYDVR0T
BAIwADAsBglghkgBhvhCAQ0EHxYdT3BlblNTTCBHZW5lcmF0ZWQgQ2VydGlmaWNh
dGUwHQYDVR0OBBYEFEW27QXZr0RlMeQ0sbvJfVZ/LnyKMB8GA1UdIwQYMBaAFLA9
4DFMP6qpIaDQX5WgB/oX5QR2MA0GCSqGSIb3DQEBCwUAA4IBAQB0rVVE97F+cVXy
7YiJRBxEpAKGgqlZXgoRCluAUyGERbniyugGy5hSB32IlKba6xC5fkHW8dJEpuyf
AyLDc9RkS7G9ZluIysTvVslrTMRTu4bBfjMvyKE0zEv3ShOzTxNxYDjgcfINjZhc
/jyzLPlEu829g7KXb0EHwAU6oKYyOItoNEJjLxkmrpt2IOnT0Qzgo2MU6kfOb5g6
GYZLM6DGB8Y3Kg1n1FPLpvtEl9uDqfbZQww+WdykuqdCps182DoAugC4UnQ8rBDh
Ww4RfU4XJB6oocuuvSQBgg80IC6JC3zgsU9IUr7Cj2ck3VJVZnHSDgsnd1nqb9ee
mMLtN4lN
-----END CERTIFICATE-----
