Certificate:
    Data:
        Version: 3 (0x2)
        Serial Number: 4118 (0x1016)
    Signature Algorithm: sha256WithRSAEncryption
        Issuer: C=34, ST=dfv, L=fg, O=fdg, OU=gd, CN=gd/emailAddress=dgf
        Validity
            Not Before: May 28 19:33:26 2023 GMT
            Not After : May 25 19:33:26 2033 GMT
        Subject: C=43, ST=rege, L=er, O=erg, OU=h, CN=rth/emailAddress=reg
        Subject Public Key Info:
            Public Key Algorithm: rsaEncryption
                Public-Key: (2048 bit)
                Modulus:
                    00:f2:5f:65:51:11:09:08:70:ac:4a:a2:0a:d0:4c:
                    ef:c4:cd:6e:82:89:26:c1:ce:d3:db:b4:4c:5c:f6:
                    d2:2f:33:79:e7:56:05:5c:d8:d0:3a:b5:6c:ec:94:
                    91:17:1f:d6:f7:5b:5d:43:44:0a:e9:e0:b1:5b:38:
                    0d:2b:d4:13:a1:33:89:d8:ff:66:97:82:2a:b9:39:
                    8b:38:4f:e5:f5:c2:1c:a1:35:55:d3:fd:32:5b:52:
                    f5:20:fe:36:0f:ab:16:be:af:f7:67:a8:17:ae:b3:
                    11:4f:c8:1c:bd:14:b3:ed:a5:db:70:34:59:88:b7:
                    5a:6d:a3:ee:0b:df:46:62:bd:57:b4:5e:66:74:dd:
                    b5:e5:eb:96:ce:63:8e:93:2f:a3:38:13:2a:b2:23:
                    7f:4a:13:50:45:9d:14:b7:4f:90:7c:fe:94:31:5a:
                    57:98:47:d6:0a:1d:e2:6b:c3:48:e6:33:4b:51:a3:
                    cf:ba:56:5e:9b:97:e6:c1:8e:d5:54:bc:7c:b6:71:
                    fd:f2:9a:05:5e:5b:68:75:02:97:fd:b3:c7:65:a1:
                    f9:2b:3e:02:85:78:8e:5a:d1:36:0d:89:72:ee:5c:
                    73:2c:74:02:7f:fe:23:91:b3:18:15:ff:22:bb:cf:
                    e3:38:d3:32:2a:cb:81:00:fa:d7:f4:27:86:7f:60:
                    d5:a9
                Exponent: 65537 (0x10001)
        X509v3 extensions:
            X509v3 Basic Constraints: 
                CA:FALSE
            Netscape Comment: 
                OpenSSL Generated Certificate
            X509v3 Subject Key Identifier: 
                70:6A:19:16:6F:EF:54:7A:27:DA:DF:0E:FB:CC:60:77:37:91:8E:20
            X509v3 Authority Key Identifier: 
                keyid:32:67:82:7E:38:57:AE:37:B0:94:54:F9:B4:C5:8A:44:62:73:C2:57

    Signature Algorithm: sha256WithRSAEncryption
         78:04:ce:3c:e3:ea:98:e4:57:13:69:a8:b2:4d:70:1b:a7:13:
         55:b6:73:df:16:1a:ce:01:a1:27:51:b6:d4:8b:d0:01:87:78:
         c0:7f:ac:76:d0:8a:44:ab:d1:26:35:0b:1d:cc:1f:3c:b3:5c:
         6f:fc:d9:ac:23:4f:0a:6e:ff:ce:a7:20:e6:1d:82:11:c0:41:
         55:5e:cd:63:74:9a:9c:66:de:92:c7:f6:c1:80:bb:f6:2b:71:
         02:9a:00:15:45:ea:55:6b:a8:2c:91:46:2b:8b:c8:80:64:b6:
         ae:9d:f8:83:00:23:9f:f2:78:12:a3:13:b8:c5:85:e5:96:72:
         71:78:be:5a:02:ae:e9:f9:ec:9f:c9:60:a7:1b:bf:2c:60:c9:
         02:c1:37:03:c7:64:34:e7:e2:f2:84:10:07:70:05:01:b1:e2:
         be:af:09:95:c4:4f:d1:b8:cf:98:61:23:87:12:27:74:69:2f:
         f0:03:46:f8:8a:ee:4e:5f:84:5f:6e:ce:86:14:ee:90:17:8d:
         74:be:14:8f:78:aa:31:ec:6d:5a:34:ce:61:e7:8a:88:80:ff:
         7d:d0:40:01:52:7a:eb:52:cf:f8:79:c3:9a:20:11:7f:b2:61:
         e7:65:9b:e1:40:84:64:26:e8:71:71:66:75:de:45:02:da:3b:
         6a:c5:60:77
-----BEGIN CERTIFICATE-----
MIIDwDCCAqigAwIBAgICEBYwDQYJKoZIhvcNAQELBQAwZDELMAkGA1UEBhMCMzQx
DDAKBgNVBAgMA2RmdjELMAkGA1UEBwwCZmcxDDAKBgNVBAoMA2ZkZzELMAkGA1UE
CwwCZ2QxCzAJBgNVBAMMAmdkMRIwEAYJKoZIhvcNAQkBFgNkZ2YwHhcNMjMwNTI4
MTkzMzI2WhcNMzMwNTI1MTkzMzI2WjBlMQswCQYDVQQGEwI0MzENMAsGA1UECAwE
cmVnZTELMAkGA1UEBwwCZXIxDDAKBgNVBAoMA2VyZzEKMAgGA1UECwwBaDEMMAoG
A1UEAwwDcnRoMRIwEAYJKoZIhvcNAQkBFgNyZWcwggEiMA0GCSqGSIb3DQEBAQUA
A4IBDwAwggEKAoIBAQDyX2VREQkIcKxKogrQTO/EzW6CiSbBztPbtExc9tIvM3nn
VgVc2NA6tWzslJEXH9b3W11DRArp4LFbOA0r1BOhM4nY/2aXgiq5OYs4T+X1whyh
NVXT/TJbUvUg/jYPqxa+r/dnqBeusxFPyBy9FLPtpdtwNFmIt1pto+4L30ZivVe0
XmZ03bXl65bOY46TL6M4EyqyI39KE1BFnRS3T5B8/pQxWleYR9YKHeJrw0jmM0tR
o8+6Vl6bl+bBjtVUvHy2cf3ymgVeW2h1Apf9s8dlofkrPgKFeI5a0TYNiXLuXHMs
dAJ//iORsxgV/yK7z+M40zIqy4EA+tf0J4Z/YNWpAgMBAAGjezB5MAkGA1UdEwQC
MAAwLAYJYIZIAYb4QgENBB8WHU9wZW5TU0wgR2VuZXJhdGVkIENlcnRpZmljYXRl
MB0GA1UdDgQWBBRwahkWb+9Ueifa3w77zGB3N5GOIDAfBgNVHSMEGDAWgBQyZ4J+
OFeuN7CUVPm0xYpEYnPCVzANBgkqhkiG9w0BAQsFAAOCAQEAeATOPOPqmORXE2mo
sk1wG6cTVbZz3xYazgGhJ1G21IvQAYd4wH+sdtCKRKvRJjULHcwfPLNcb/zZrCNP
Cm7/zqcg5h2CEcBBVV7NY3SanGbeksf2wYC79itxApoAFUXqVWuoLJFGK4vIgGS2
rp34gwAjn/J4EqMTuMWF5ZZycXi+WgKu6fnsn8lgpxu/LGDJAsE3A8dkNOfi8oQQ
B3AFAbHivq8JlcRP0bjPmGEjhxIndGkv8ANG+IruTl+EX27OhhTukBeNdL4Uj3iq
MextWjTOYeeKiID/fdBAAVJ661LP+HnDmiARf7Jh52Wb4UCEZCbocXFmdd5FAto7
asVgdw==
-----END CERTIFICATE-----
