Certificate:
    Data:
        Version: 3 (0x2)
        Serial Number: 4119 (0x1017)
    Signature Algorithm: sha256WithRSAEncryption
        Issuer: C=34, ST=dfv, L=fg, O=fdg, OU=gd, CN=gd/emailAddress=dgf
        Validity
            Not Before: May 28 19:33:29 2023 GMT
            Not After : May 25 19:33:29 2033 GMT
        Subject: C=53, ST=dfh, L=erg, O=erg, OU=htj, CN=reg/emailAddress=es
        Subject Public Key Info:
            Public Key Algorithm: rsaEncryption
                Public-Key: (2048 bit)
                Modulus:
                    00:97:b5:3e:66:88:3d:3b:e9:43:1a:19:f2:5b:33:
                    d0:ab:cb:6e:f5:3d:75:28:1b:66:e4:74:d0:72:54:
                    95:a0:87:56:66:59:33:8e:f5:4b:64:67:5a:63:d6:
                    b4:2c:93:5b:0c:26:23:07:61:97:b0:25:ce:8b:87:
                    bc:f2:13:7f:fd:e6:f7:34:51:64:c2:ea:ed:67:88:
                    89:fc:a0:fc:6a:89:9d:d0:84:cc:04:88:5d:d9:96:
                    91:c1:33:e8:35:e0:b7:78:ad:00:32:86:48:41:e2:
                    a4:60:5e:44:c6:2c:9c:dd:e1:3d:31:f8:1d:ca:36:
                    29:12:e8:c7:b0:51:13:e5:96:b1:46:ef:ae:40:5e:
                    69:9c:03:6f:a5:88:f9:94:58:2f:ff:66:e1:39:33:
                    b4:66:f7:16:93:00:52:47:ad:60:b2:94:c8:cf:7f:
                    2c:1b:7c:91:59:7b:cc:c7:cf:c1:d1:cf:eb:a0:b3:
                    04:a6:74:ec:d6:04:98:d3:54:88:de:4d:4d:31:41:
                    69:88:0b:e4:06:e8:6d:71:eb:79:6d:8a:ff:dc:1b:
                    a7:67:87:73:67:a0:d4:b8:74:59:4f:a7:76:bc:b5:
                    df:8b:93:c7:ac:72:f8:60:55:fe:01:b9:70:bf:cc:
                    8f:9a:cf:20:7a:f6:f6:ce:cc:44:b2:96:65:af:f5:
                    a6:33
                Exponent: 65537 (0x10001)
        X509v3 extensions:
            X509v3 Basic Constraints: 
                CA:FALSE
            Netscape Comment: 
                OpenSSL Generated Certificate
            X509v3 Subject Key Identifier: 
                A6:13:22:36:5E:E3:68:70:A7:1C:DD:11:62:2E:31:7D:3F:83:2C:E1
            X509v3 Authority Key Identifier: 
                keyid:32:67:82:7E:38:57:AE:37:B0:94:54:F9:B4:C5:8A:44:62:73:C2:57

    Signature Algorithm: sha256WithRSAEncryption
         d7:38:a8:95:12:a9:bc:db:77:6d:06:45:a1:84:62:e9:c8:51:
         5a:ad:44:dd:6c:11:45:5e:2c:7f:75:a2:ff:da:64:13:6a:bc:
         e4:b3:2e:97:29:22:79:55:5a:95:26:4e:4c:41:74:76:9b:7f:
         0f:58:58:ef:61:0f:10:a4:00:ff:21:4b:85:33:fe:14:78:fc:
         86:56:69:80:ee:7d:ff:45:24:38:74:17:43:50:14:05:0b:c0:
         ed:27:54:fe:e0:c1:d2:73:f1:21:fc:39:77:16:9b:f0:86:10:
         8b:dc:e4:5a:56:2f:ed:92:c6:17:94:4c:06:1c:44:f9:21:28:
         91:a3:ad:b1:42:01:5d:61:5a:25:9d:92:bc:3d:65:54:6c:da:
         58:bf:5f:5f:d0:db:b1:a8:38:bf:99:0a:3e:e5:95:ed:bf:d0:
         72:56:57:0c:f9:27:08:d1:40:05:2e:39:8f:56:ec:3d:28:cf:
         46:de:69:08:cc:78:5e:95:d7:cf:88:8c:31:bb:b2:81:97:0d:
         f4:2b:47:37:86:27:d6:78:f3:70:08:22:74:cc:f8:76:b6:37:
         b5:e0:56:44:d2:d3:a2:eb:68:0f:b6:28:fa:fa:88:f4:d5:d5:
         3d:78:53:a1:fb:8c:3a:27:6a:7f:3f:48:af:17:1e:cc:25:c3:
         c9:49:e3:51
-----BEGIN CERTIFICATE-----
MIIDwTCCAqmgAwIBAgICEBcwDQYJKoZIhvcNAQELBQAwZDELMAkGA1UEBhMCMzQx
DDAKBgNVBAgMA2RmdjELMAkGA1UEBwwCZmcxDDAKBgNVBAoMA2ZkZzELMAkGA1UE
CwwCZ2QxCzAJBgNVBAMMAmdkMRIwEAYJKoZIhvcNAQkBFgNkZ2YwHhcNMjMwNTI4
MTkzMzI5WhcNMzMwNTI1MTkzMzI5WjBmMQswCQYDVQQGEwI1MzEMMAoGA1UECAwD
ZGZoMQwwCgYDVQQHDANlcmcxDDAKBgNVBAoMA2VyZzEMMAoGA1UECwwDaHRqMQww
CgYDVQQDDANyZWcxETAPBgkqhkiG9w0BCQEWAmVzMIIBIjANBgkqhkiG9w0BAQEF
AAOCAQ8AMIIBCgKCAQEAl7U+Zog9O+lDGhnyWzPQq8tu9T11KBtm5HTQclSVoIdW
ZlkzjvVLZGdaY9a0LJNbDCYjB2GXsCXOi4e88hN//eb3NFFkwurtZ4iJ/KD8aomd
0ITMBIhd2ZaRwTPoNeC3eK0AMoZIQeKkYF5Exiyc3eE9MfgdyjYpEujHsFET5Zax
Ru+uQF5pnANvpYj5lFgv/2bhOTO0ZvcWkwBSR61gspTIz38sG3yRWXvMx8/B0c/r
oLMEpnTs1gSY01SI3k1NMUFpiAvkBuhtcet5bYr/3BunZ4dzZ6DUuHRZT6d2vLXf
i5PHrHL4YFX+Ablwv8yPms8gevb2zsxEspZlr/WmMwIDAQABo3sweTAJBgNVHRME
AjAAMCwGCWCGSAGG+EIBDQQfFh1PcGVuU1NMIEdlbmVyYXRlZCBDZXJ0aWZpY2F0
ZTAdBgNVHQ4EFgQUphMiNl7jaHCnHN0RYi4xfT+DLOEwHwYDVR0jBBgwFoAUMmeC
fjhXrjewlFT5tMWKRGJzwlcwDQYJKoZIhvcNAQELBQADggEBANc4qJUSqbzbd20G
RaGEYunIUVqtRN1sEUVeLH91ov/aZBNqvOSzLpcpInlVWpUmTkxBdHabfw9YWO9h
DxCkAP8hS4Uz/hR4/IZWaYDuff9FJDh0F0NQFAULwO0nVP7gwdJz8SH8OXcWm/CG
EIvc5FpWL+2SxheUTAYcRPkhKJGjrbFCAV1hWiWdkrw9ZVRs2li/X1/Q27GoOL+Z
Cj7lle2/0HJWVwz5JwjRQAUuOY9W7D0oz0beaQjMeF6V18+IjDG7soGXDfQrRzeG
J9Z483AIInTM+Ha2N7XgVkTS06LraA+2KPr6iPTV1T14U6H7jDonan8/SK8XHswl
w8lJ41E=
-----END CERTIFICATE-----
