Certificate:
    Data:
        Version: 3 (0x2)
        Serial Number: 4120 (0x1018)
    Signature Algorithm: sha256WithRSAEncryption
        Issuer: C=34, ST=sdf, L=sgs, O=dsf, OU=sf, CN=sf/emailAddress=sdf
        Validity
            Not Before: Jun  8 20:02:22 2023 GMT
            Not After : Jun  5 20:02:22 2033 GMT
        Subject: C=34, ST=gs, L=sdg, O=asdg, OU=asfd, CN=asdf/emailAddress=sdf
        Subject Public Key Info:
            Public Key Algorithm: rsaEncryption
                Public-Key: (2048 bit)
                Modulus:
                    00:be:db:b2:88:d7:96:56:9d:52:f8:b9:c6:00:0d:
                    ee:2b:24:7f:a4:57:99:35:5e:62:5b:4b:f0:f6:a4:
                    45:41:a1:35:7a:9b:9f:b0:03:e0:a8:36:6e:bc:0f:
                    dc:e1:2f:ea:be:cb:ba:e1:94:d7:e3:16:8d:fa:05:
                    4f:c0:2d:77:af:72:5e:f7:6b:74:03:86:4e:f6:de:
                    ac:0a:7d:05:b5:64:5d:4e:21:ae:4f:83:1b:df:94:
                    e2:0b:b6:16:ff:55:a9:ea:fa:d9:89:ca:e5:56:18:
                    bc:69:53:bf:e4:3c:e9:07:a2:bb:a4:ee:f3:60:ad:
                    2f:13:d8:cc:9e:94:74:a3:d1:37:80:45:56:81:e0:
                    9b:78:f5:ae:7d:e7:e6:df:9c:20:af:9c:e4:dc:ac:
                    b3:26:5b:27:e5:69:7b:aa:9b:dd:cb:f9:14:7e:39:
                    d1:7e:c5:66:e1:46:09:23:98:43:c1:6d:14:d5:71:
                    c6:7f:2b:13:52:34:7b:52:2f:00:95:34:55:81:c8:
                    cf:e8:60:f9:ae:cc:2f:4a:4b:03:df:f1:e2:2f:d7:
                    79:40:a3:e0:45:8e:15:b0:f7:33:80:4f:53:b5:f2:
                    de:af:59:28:59:1b:01:e6:fd:54:b6:06:2b:cf:06:
                    15:07:dc:6d:c6:96:92:43:c8:c2:10:f9:06:ac:5c:
                    78:ff
                Exponent: 65537 (0x10001)
        X509v3 extensions:
            X509v3 Basic Constraints: 
                CA:FALSE
            Netscape Comment: 
                OpenSSL Generated Certificate
            X509v3 Subject Key Identifier: 
                0A:45:17:A9:76:0A:8F:A1:4D:A7:6F:C0:DD:05:7E:F0:0F:D3:E4:28
            X509v3 Authority Key Identifier: 
                keyid:34:31:4A:31:07:6D:1C:60:A0:C1:88:4E:A6:4A:77:10:9F:89:AA:3B

    Signature Algorithm: sha256WithRSAEncryption
         36:0d:58:b1:de:22:f3:ee:ce:ea:38:29:46:1d:38:e7:b0:e2:
         29:02:60:59:86:ac:26:b2:b2:2b:32:b5:fe:cb:de:9f:98:35:
         57:da:dc:c6:98:99:46:24:33:45:5e:b4:51:20:a8:0c:db:25:
         f3:af:88:36:94:67:0f:c3:32:db:dd:0c:52:9b:16:ee:98:7b:
         07:66:c2:f3:c0:54:92:1c:64:bd:58:b6:cf:90:a6:97:c0:83:
         f5:03:fc:0b:d9:18:3e:d7:ba:bd:a3:58:1a:12:45:73:6d:5b:
         28:79:9c:98:c7:07:53:3a:61:1b:4a:a4:f3:8e:50:82:14:10:
         29:bc:c2:17:93:48:93:d3:a0:9f:c1:4e:de:cc:e1:f0:49:7b:
         77:7e:a4:af:42:6c:47:2c:72:e3:fe:5e:cc:6d:fc:ad:92:df:
         76:d5:30:f6:5c:2e:2e:70:d2:d9:ee:d5:9d:09:28:49:5f:f4:
         99:ec:7e:7d:93:97:47:4c:3b:08:0a:20:ac:09:3c:ca:f3:3a:
         18:1f:d4:9d:8d:dd:17:4a:60:16:cf:d7:12:33:87:e0:48:68:
         eb:ba:43:78:31:03:f9:5c:56:b4:90:36:a5:00:56:36:67:98:
         8d:26:97:96:2b:c7:ff:d4:5e:22:ac:73:6b:fb:cc:0b:72:0d:
         a5:7d:e7:74
-----BEGIN CERTIFICATE-----
MIIDxTCCAq2gAwIBAgICEBgwDQYJKoZIhvcNAQELBQAwZTELMAkGA1UEBhMCMzQx
DDAKBgNVBAgMA3NkZjEMMAoGA1UEBwwDc2dzMQwwCgYDVQQKDANkc2YxCzAJBgNV
BAsMAnNmMQswCQYDVQQDDAJzZjESMBAGCSqGSIb3DQEJARYDc2RmMB4XDTIzMDYw
ODIwMDIyMloXDTMzMDYwNTIwMDIyMlowaTELMAkGA1UEBhMCMzQxCzAJBgNVBAgM
AmdzMQwwCgYDVQQHDANzZGcxDTALBgNVBAoMBGFzZGcxDTALBgNVBAsMBGFzZmQx
DTALBgNVBAMMBGFzZGYxEjAQBgkqhkiG9w0BCQEWA3NkZjCCASIwDQYJKoZIhvcN
AQEBBQADggEPADCCAQoCggEBAL7bsojXlladUvi5xgAN7iskf6RXmTVeYltL8Pak
RUGhNXqbn7AD4Kg2brwP3OEv6r7LuuGU1+MWjfoFT8Atd69yXvdrdAOGTvberAp9
BbVkXU4hrk+DG9+U4gu2Fv9Vqer62YnK5VYYvGlTv+Q86Qeiu6Tu82CtLxPYzJ6U
dKPRN4BFVoHgm3j1rn3n5t+cIK+c5NyssyZbJ+Vpe6qb3cv5FH450X7FZuFGCSOY
Q8FtFNVxxn8rE1I0e1IvAJU0VYHIz+hg+a7ML0pLA9/x4i/XeUCj4EWOFbD3M4BP
U7Xy3q9ZKFkbAeb9VLYGK88GFQfcbcaWkkPIwhD5BqxceP8CAwEAAaN7MHkwCQYD
VR0TBAIwADAsBglghkgBhvhCAQ0EHxYdT3BlblNTTCBHZW5lcmF0ZWQgQ2VydGlm
aWNhdGUwHQYDVR0OBBYEFApFF6l2Co+hTadvwN0FfvAP0+QoMB8GA1UdIwQYMBaA
FDQxSjEHbRxgoMGITqZKdxCfiao7MA0GCSqGSIb3DQEBCwUAA4IBAQA2DVix3iLz
7s7qOClGHTjnsOIpAmBZhqwmsrIrMrX+y96fmDVX2tzGmJlGJDNFXrRRIKgM2yXz
r4g2lGcPwzLb3QxSmxbumHsHZsLzwFSSHGS9WLbPkKaXwIP1A/wL2Rg+17q9o1ga
EkVzbVsoeZyYxwdTOmEbSqTzjlCCFBApvMIXk0iT06CfwU7ezOHwSXt3fqSvQmxH
LHLj/l7Mbfytkt921TD2XC4ucNLZ7tWdCShJX/SZ7H59k5dHTDsICiCsCTzK8zoY
H9Sdjd0XSmAWz9cSM4fgSGjrukN4MQP5XFa0kDalAFY2Z5iNJpeWK8f/1F4irHNr
+8wLcg2lfed0
-----END CERTIFICATE-----
