Certificate:
    Data:
        Version: 3 (0x2)
        Serial Number: 4121 (0x1019)
    Signature Algorithm: sha256WithRSAEncryption
        Issuer: C=34, ST=sdf, L=sgs, O=dsf, OU=sf, CN=sf/emailAddress=sdf
        Validity
            Not Before: Jun  8 20:02:26 2023 GMT
            Not After : Jun  5 20:02:26 2033 GMT
        Subject: C=34, ST=1234, L=1234, O=1234, OU=1234, CN=1234/emailAddress=1234
        Subject Public Key Info:
            Public Key Algorithm: rsaEncryption
                Public-Key: (2048 bit)
                Modulus:
                    00:ac:fc:00:70:28:8f:fa:aa:dd:f3:ef:3d:2f:72:
                    74:bd:1f:0b:88:90:9e:bb:72:aa:f0:37:59:61:0c:
                    63:f4:d6:23:97:45:a5:e9:24:de:92:1b:cf:90:8f:
                    e1:b2:b4:fa:0d:29:50:8e:a1:99:1d:da:d8:7a:f7:
                    6e:90:98:59:6e:14:81:40:e8:2d:d4:cd:d9:08:7a:
                    8a:bc:c3:91:24:e6:ad:ae:54:45:1e:30:95:6d:0d:
                    9a:c5:3d:4f:a0:a8:41:49:1e:a1:9d:ad:09:3c:18:
                    85:df:4b:5a:c3:90:d4:ed:50:fc:13:d9:fd:2c:9f:
                    be:c2:4f:7f:70:87:a7:aa:f6:7a:d9:59:bc:f3:37:
                    97:85:11:c0:72:7b:63:08:33:c9:43:e3:9d:ab:6e:
                    7e:f9:f8:ea:cc:87:42:69:87:8e:bc:e2:90:ff:34:
                    10:16:05:40:c1:5d:01:7e:38:37:fb:75:21:b4:72:
                    91:17:92:a6:53:ab:3e:7c:b8:4f:b4:e3:3d:b3:50:
                    e1:1d:68:20:ed:4f:66:fc:b1:8d:e4:7b:39:39:0d:
                    e7:9c:33:87:a9:92:d7:45:8f:29:aa:71:8c:e8:1a:
                    d5:70:61:b9:e0:88:12:2d:aa:51:d8:76:4b:d2:9e:
                    97:c2:c9:16:1b:ff:1d:26:eb:1c:77:c9:59:6c:bd:
                    ae:21
                Exponent: 65537 (0x10001)
        X509v3 extensions:
            X509v3 Basic Constraints: 
                CA:FALSE
            Netscape Comment: 
                OpenSSL Generated Certificate
            X509v3 Subject Key Identifier: 
                D1:B1:70:4E:AE:40:46:A7:37:9E:B3:D5:BD:AE:7F:33:C2:F9:7D:83
            X509v3 Authority Key Identifier: 
                keyid:34:31:4A:31:07:6D:1C:60:A0:C1:88:4E:A6:4A:77:10:9F:89:AA:3B

    Signature Algorithm: sha256WithRSAEncryption
         72:e7:9e:27:1f:73:f2:f8:96:90:f7:bf:41:57:51:0e:cf:a1:
         4d:5a:7c:c0:e8:6e:25:3a:c9:43:5d:72:90:aa:8d:a7:61:4f:
         37:ac:d7:32:1c:6e:3e:9e:e7:3a:1d:ca:76:dd:9b:82:c0:e3:
         18:87:30:6d:d3:aa:76:0c:cd:46:4e:f1:99:89:b3:f8:fb:04:
         73:fd:06:6f:a6:ef:50:a1:3c:44:1e:ce:39:b7:26:02:3a:72:
         0e:c5:60:4b:3c:42:fc:c1:ca:0c:d9:1d:83:dc:a6:e0:26:58:
         ce:99:1d:e2:bb:6b:28:0f:24:75:9a:0a:25:1c:84:14:e5:53:
         74:11:d2:38:56:26:34:e8:b5:9b:07:36:b2:01:c6:e8:0f:97:
         13:3c:8f:50:db:85:61:85:2e:34:55:ec:bb:6b:ce:89:48:58:
         71:17:67:96:fb:cf:dd:da:e3:17:17:44:db:85:fb:ad:e2:4a:
         46:eb:eb:af:62:81:5c:44:10:4a:20:fb:d0:8d:e4:00:8d:8c:
         b6:38:0d:06:59:52:d5:8e:0a:1c:d8:91:f6:ba:0d:7b:8d:2e:
         f0:7a:28:56:6a:33:27:80:f9:6c:20:c2:08:f9:70:7d:14:03:
         a4:21:0d:bc:40:ec:3d:c8:44:f3:b8:94:7e:2a:d3:1c:a4:d7:
         e0:cf:da:e6
-----BEGIN CERTIFICATE-----
MIIDyTCCArGgAwIBAgICEBkwDQYJKoZIhvcNAQELBQAwZTELMAkGA1UEBhMCMzQx
DDAKBgNVBAgMA3NkZjEMMAoGA1UEBwwDc2dzMQwwCgYDVQQKDANkc2YxCzAJBgNV
BAsMAnNmMQswCQYDVQQDDAJzZjESMBAGCSqGSIb3DQEJARYDc2RmMB4XDTIzMDYw
ODIwMDIyNloXDTMzMDYwNTIwMDIyNlowbTELMAkGA1UEBhMCMzQxDTALBgNVBAgM
BDEyMzQxDTALBgNVBAcMBDEyMzQxDTALBgNVBAoMBDEyMzQxDTALBgNVBAsMBDEy
MzQxDTALBgNVBAMMBDEyMzQxEzARBgkqhkiG9w0BCQEWBDEyMzQwggEiMA0GCSqG
SIb3DQEBAQUAA4IBDwAwggEKAoIBAQCs/ABwKI/6qt3z7z0vcnS9HwuIkJ67cqrw
N1lhDGP01iOXRaXpJN6SG8+Qj+GytPoNKVCOoZkd2th6926QmFluFIFA6C3UzdkI
eoq8w5Ek5q2uVEUeMJVtDZrFPU+gqEFJHqGdrQk8GIXfS1rDkNTtUPwT2f0sn77C
T39wh6eq9nrZWbzzN5eFEcBye2MIM8lD452rbn75+OrMh0Jph4684pD/NBAWBUDB
XQF+ODf7dSG0cpEXkqZTqz58uE+04z2zUOEdaCDtT2b8sY3kezk5DeecM4epktdF
jymqcYzoGtVwYbngiBItqlHYdkvSnpfCyRYb/x0m6xx3yVlsva4hAgMBAAGjezB5
MAkGA1UdEwQCMAAwLAYJYIZIAYb4QgENBB8WHU9wZW5TU0wgR2VuZXJhdGVkIENl
cnRpZmljYXRlMB0GA1UdDgQWBBTRsXBOrkBGpzees9W9rn8zwvl9gzAfBgNVHSME
GDAWgBQ0MUoxB20cYKDBiE6mSncQn4mqOzANBgkqhkiG9w0BAQsFAAOCAQEAcuee
Jx9z8viWkPe/QVdRDs+hTVp8wOhuJTrJQ11ykKqNp2FPN6zXMhxuPp7nOh3Kdt2b
gsDjGIcwbdOqdgzNRk7xmYmz+PsEc/0Gb6bvUKE8RB7OObcmAjpyDsVgSzxC/MHK
DNkdg9ym4CZYzpkd4rtrKA8kdZoKJRyEFOVTdBHSOFYmNOi1mwc2sgHG6A+XEzyP
UNuFYYUuNFXsu2vOiUhYcRdnlvvP3drjFxdE24X7reJKRuvrr2KBXEQQSiD70I3k
AI2MtjgNBllS1Y4KHNiR9roNe40u8HooVmozJ4D5bCDCCPlwfRQDpCENvEDsPchE
87iUfirTHKTX4M/a5g==
-----END CERTIFICATE-----
