Certificate:
    Data:
        Version: 3 (0x2)
        Serial Number: 4122 (0x101a)
    Signature Algorithm: sha256WithRSAEncryption
        Issuer: C=34, ST=1234, L=1234, O=1234, OU=1234, CN=1234/emailAddress=1234
        Validity
            Not Before: Dec 31 16:01:43 2022 GMT
            Not After : Dec 28 16:01:43 2032 GMT
        Subject: C=34, ST=1234, L=1234, O=1234, OU=1234, CN=1234/emailAddress=1243
        Subject Public Key Info:
            Public Key Algorithm: rsaEncryption
                Public-Key: (2048 bit)
                Modulus:
                    00:af:54:26:d4:02:ed:6d:55:0a:c1:29:74:56:e0:
                    1f:e5:df:41:1b:2f:1c:f4:d5:ba:7e:aa:13:e5:d9:
                    16:ba:f5:0e:93:50:03:67:bd:bc:73:d5:ce:06:87:
                    7b:9c:92:14:06:13:0a:53:79:cb:11:f5:d1:d8:f1:
                    dd:95:74:fb:7b:4c:81:6c:c4:d3:d2:e2:4f:e4:d3:
                    fb:a2:d2:39:38:0b:15:6d:e6:8e:6c:28:90:c8:31:
                    d1:ac:4b:b3:95:28:54:eb:a1:77:25:5c:61:12:14:
                    ab:83:63:de:7d:90:43:f2:6a:1c:39:ed:91:fd:ef:
                    13:b3:e6:8e:d0:f6:75:a4:b6:c2:a6:7f:26:86:1a:
                    3e:0c:49:39:0d:3c:93:56:87:73:9c:48:70:70:55:
                    84:23:b6:99:63:5f:87:fe:ce:2e:f2:3a:78:49:28:
                    dc:03:56:ba:9b:ea:97:5a:d1:6b:d8:7e:ad:72:66:
                    e8:f2:2c:04:2b:cc:c6:9b:a4:de:68:c6:bb:8b:40:
                    d2:e1:a5:e3:a3:d2:16:3d:53:56:ed:48:d5:6f:41:
                    bd:d9:ae:41:bc:ec:88:6a:e8:a3:69:cf:7f:99:92:
                    1a:fa:61:a3:c9:e7:14:c4:40:ce:f0:74:41:2e:cc:
                    d2:ed:a5:92:3f:f3:88:97:1b:ef:07:bc:c3:70:e2:
                    43:97
                Exponent: 65537 (0x10001)
        X509v3 extensions:
            X509v3 Basic Constraints: 
                CA:FALSE
            Netscape Comment: 
                OpenSSL Generated Certificate
            X509v3 Subject Key Identifier: 
                DA:AF:85:E6:92:AB:78:05:3D:1F:13:DC:8F:C4:F8:27:E7:B7:F8:6B
            X509v3 Authority Key Identifier: 
                keyid:1C:C0:10:46:93:EB:81:F0:8A:7F:18:94:D2:D0:E7:00:34:9B:20:7B

    Signature Algorithm: sha256WithRSAEncryption
         56:54:66:cc:9c:ca:1a:a3:9c:08:40:94:c0:02:a2:13:20:1b:
         f6:5d:ff:2a:50:14:e7:1f:1c:12:62:e7:37:50:d0:c9:71:a4:
         39:38:8e:87:16:7d:49:88:b7:b0:41:8f:aa:4b:07:46:13:78:
         8d:c9:d5:7d:5f:c6:43:c8:14:07:5a:57:bb:23:f8:01:3a:d0:
         3a:3c:1b:d8:47:b0:df:f9:04:a5:e9:1c:f1:c2:8c:54:6a:5d:
         f2:32:5f:f3:a7:ce:7e:e8:0e:39:78:fc:cb:dc:65:63:fd:6e:
         d6:0d:df:53:f0:93:e1:6a:4b:95:d9:0d:6a:45:27:40:0a:67:
         54:ac:36:b7:4c:38:77:38:33:cc:d6:5c:54:76:32:dc:4e:93:
         3a:32:1c:da:e4:c3:d6:d7:f3:b9:e0:69:a4:a0:fe:de:e3:31:
         ca:e8:c0:c6:4a:71:3f:9c:a5:c0:3c:6a:70:28:64:2e:bb:c4:
         ee:bd:62:8a:16:8d:64:44:93:ff:07:52:d8:a3:f0:4c:02:ee:
         79:4b:3f:c7:84:84:b8:09:de:40:42:d9:3f:b4:cd:7d:23:36:
         26:1a:dc:b2:79:a2:10:6e:2d:07:c6:9c:f1:54:70:36:23:e1:
         7f:13:88:8a:23:fd:c9:46:2f:80:1f:c4:e4:c7:7e:08:99:9c:
         bc:e2:04:72
-----BEGIN CERTIFICATE-----
MIID0TCCArmgAwIBAgICEBowDQYJKoZIhvcNAQELBQAwbTELMAkGA1UEBhMCMzQx
DTALBgNVBAgMBDEyMzQxDTALBgNVBAcMBDEyMzQxDTALBgNVBAoMBDEyMzQxDTAL
BgNVBAsMBDEyMzQxDTALBgNVBAMMBDEyMzQxEzARBgkqhkiG9w0BCQEWBDEyMzQw
HhcNMjIxMjMxMTYwMTQzWhcNMzIxMjI4MTYwMTQzWjBtMQswCQYDVQQGEwIzNDEN
MAsGA1UECAwEMTIzNDENMAsGA1UEBwwEMTIzNDENMAsGA1UECgwEMTIzNDENMAsG
A1UECwwEMTIzNDENMAsGA1UEAwwEMTIzNDETMBEGCSqGSIb3DQEJARYEMTI0MzCC
ASIwDQYJKoZIhvcNAQEBBQADggEPADCCAQoCggEBAK9UJtQC7W1VCsEpdFbgH+Xf
QRsvHPTVun6qE+XZFrr1DpNQA2e9vHPVzgaHe5ySFAYTClN5yxH10djx3ZV0+3tM
gWzE09LiT+TT+6LSOTgLFW3mjmwokMgx0axLs5UoVOuhdyVcYRIUq4Nj3n2QQ/Jq
HDntkf3vE7PmjtD2daS2wqZ/JoYaPgxJOQ08k1aHc5xIcHBVhCO2mWNfh/7OLvI6
eEko3ANWupvql1rRa9h+rXJm6PIsBCvMxpuk3mjGu4tA0uGl46PSFj1TVu1I1W9B
vdmuQbzsiGroo2nPf5mSGvpho8nnFMRAzvB0QS7M0u2lkj/ziJcb7we8w3DiQ5cC
AwEAAaN7MHkwCQYDVR0TBAIwADAsBglghkgBhvhCAQ0EHxYdT3BlblNTTCBHZW5l
cmF0ZWQgQ2VydGlmaWNhdGUwHQYDVR0OBBYEFNqvheaSq3gFPR8T3I/E+Cfnt/hr
MB8GA1UdIwQYMBaAFBzAEEaT64Hwin8YlNLQ5wA0myB7MA0GCSqGSIb3DQEBCwUA
A4IBAQBWVGbMnMoao5wIQJTAAqITIBv2Xf8qUBTnHxwSYuc3UNDJcaQ5OI6HFn1J
iLewQY+qSwdGE3iNydV9X8ZDyBQHWle7I/gBOtA6PBvYR7Df+QSl6RzxwoxUal3y
Ml/zp85+6A45ePzL3GVj/W7WDd9T8JPhakuV2Q1qRSdACmdUrDa3TDh3ODPM1lxU
djLcTpM6Mhza5MPW1/O54GmkoP7e4zHK6MDGSnE/nKXAPGpwKGQuu8TuvWKKFo1k
RJP/B1LYo/BMAu55Sz/HhIS4Cd5AQtk/tM19IzYmGtyyeaIQbi0HxpzxVHA2I+F/
E4iKI/3JRi+AH8Tkx34ImZy84gRy
-----END CERTIFICATE-----
