Certificate:
    Data:
        Version: 3 (0x2)
        Serial Number: 4123 (0x101b)
    Signature Algorithm: sha256WithRSAEncryption
        Issuer: C=34, ST=1234, L=1234, O=1234, OU=1234, CN=1234/emailAddress=1234
        Validity
            Not Before: Dec 31 16:01:46 2022 GMT
            Not After : Dec 28 16:01:46 2032 GMT
        Subject: C=34, ST=1234, L=1234, O=1234, OU=1234, CN=1234/emailAddress=1234
        Subject Public Key Info:
            Public Key Algorithm: rsaEncryption
                Public-Key: (2048 bit)
                Modulus:
                    00:bb:7f:01:4e:d1:ed:c4:c9:21:6e:4b:1a:a3:2a:
                    47:43:c3:fa:0c:90:65:01:b1:41:3a:30:3c:e3:bf:
                    0d:86:2b:ea:e4:32:61:3f:61:18:b0:dd:b7:db:46:
                    fa:ee:6d:6a:65:ff:fc:c7:c5:1f:cd:99:0e:f9:85:
                    e4:2d:21:72:a6:ba:e0:34:6c:00:53:a0:51:f8:6f:
                    b9:86:00:e8:c3:b8:73:90:92:1c:9d:b6:af:f9:ba:
                    1f:a8:73:0e:61:82:47:66:3b:fa:d5:fa:b2:0d:d9:
                    68:c2:9c:10:48:fe:aa:5d:cb:91:6d:54:1e:29:9a:
                    48:fb:5b:59:ae:f5:a8:46:2b:52:d3:e3:57:6c:81:
                    70:2f:45:01:23:14:41:72:27:cf:99:23:ec:20:f3:
                    de:2b:0b:71:ff:9d:3d:e5:23:fd:8f:da:b0:fd:d3:
                    d9:48:05:3f:a1:02:08:f1:f9:f3:d9:50:63:b3:42:
                    54:28:96:89:67:4b:4a:c1:4a:a4:88:de:bf:cf:01:
                    a3:1b:08:d8:3c:7c:33:fc:50:8e:7d:b7:3e:21:5f:
                    ce:05:2f:39:48:a3:7d:da:c4:d4:8d:21:cd:f0:3a:
                    94:85:c8:ba:e1:84:45:1c:c3:8c:87:01:fa:bd:be:
                    ad:5f:e0:5f:3a:56:aa:47:5e:18:a4:3e:4e:79:4e:
                    55:f5
                Exponent: 65537 (0x10001)
        X509v3 extensions:
            X509v3 Basic Constraints: 
                CA:FALSE
            Netscape Comment: 
                OpenSSL Generated Certificate
            X509v3 Subject Key Identifier: 
                1D:B1:D7:69:F5:10:FF:B5:BD:71:9D:20:E6:06:D6:66:FD:7A:BD:4A
            X509v3 Authority Key Identifier: 
                keyid:1C:C0:10:46:93:EB:81:F0:8A:7F:18:94:D2:D0:E7:00:34:9B:20:7B

    Signature Algorithm: sha256WithRSAEncryption
         38:3c:f0:d5:e9:44:cb:7e:23:fa:99:25:62:fd:cf:83:14:1d:
         e8:10:4d:16:3a:34:b3:93:68:d2:22:6f:aa:49:f2:db:e2:8d:
         4f:83:76:e4:c9:f1:85:66:9a:82:0d:1e:83:87:40:f4:08:29:
         aa:28:7c:82:6d:07:40:8a:9d:bc:30:d3:31:60:42:b4:3f:ea:
         99:b1:56:e4:ae:f5:e1:ec:cf:26:d5:a2:e7:e7:60:3c:84:86:
         59:11:79:b5:9e:d6:55:36:c3:12:37:ed:e3:70:19:db:0b:68:
         55:15:7d:b9:dd:91:21:c5:47:81:6a:3b:82:23:0e:dd:74:c3:
         27:2d:54:c4:49:59:9a:83:f6:93:f1:78:4f:48:6f:06:76:e3:
         92:69:9f:da:e0:59:3f:4b:95:f4:21:72:ad:d8:78:d8:a1:32:
         f4:44:1e:6e:7f:8f:eb:27:f3:25:e4:bf:ea:0e:85:57:68:1b:
         21:66:73:ba:36:52:b4:ff:d3:1d:50:d6:7a:61:91:53:ec:5c:
         d5:4d:28:9e:30:8d:d1:ed:12:db:e6:7a:36:0b:55:92:e1:aa:
         2e:eb:62:2d:01:02:ef:78:db:25:37:af:8f:84:36:c0:f9:22:
         c0:f6:17:c3:b7:11:03:47:53:58:be:0c:4c:73:bc:58:ac:f9:
         be:c4:cd:db
-----BEGIN CERTIFICATE-----
MIID0TCCArmgAwIBAgICEBswDQYJKoZIhvcNAQELBQAwbTELMAkGA1UEBhMCMzQx
DTALBgNVBAgMBDEyMzQxDTALBgNVBAcMBDEyMzQxDTALBgNVBAoMBDEyMzQxDTAL
BgNVBAsMBDEyMzQxDTALBgNVBAMMBDEyMzQxEzARBgkqhkiG9w0BCQEWBDEyMzQw
HhcNMjIxMjMxMTYwMTQ2WhcNMzIxMjI4MTYwMTQ2WjBtMQswCQYDVQQGEwIzNDEN
MAsGA1UECAwEMTIzNDENMAsGA1UEBwwEMTIzNDENMAsGA1UECgwEMTIzNDENMAsG
A1UECwwEMTIzNDENMAsGA1UEAwwEMTIzNDETMBEGCSqGSIb3DQEJARYEMTIzNDCC
ASIwDQYJKoZIhvcNAQEBBQADggEPADCCAQoCggEBALt/AU7R7cTJIW5LGqMqR0PD
+gyQZQGxQTowPOO/DYYr6uQyYT9hGLDdt9tG+u5tamX//MfFH82ZDvmF5C0hcqa6
4DRsAFOgUfhvuYYA6MO4c5CSHJ22r/m6H6hzDmGCR2Y7+tX6sg3ZaMKcEEj+ql3L
kW1UHimaSPtbWa71qEYrUtPjV2yBcC9FASMUQXInz5kj7CDz3isLcf+dPeUj/Y/a
sP3T2UgFP6ECCPH589lQY7NCVCiWiWdLSsFKpIjev88BoxsI2Dx8M/xQjn23PiFf
zgUvOUijfdrE1I0hzfA6lIXIuuGERRzDjIcB+r2+rV/gXzpWqkdeGKQ+TnlOVfUC
AwEAAaN7MHkwCQYDVR0TBAIwADAsBglghkgBhvhCAQ0EHxYdT3BlblNTTCBHZW5l
cmF0ZWQgQ2VydGlmaWNhdGUwHQYDVR0OBBYEFB2x12n1EP+1vXGdIOYG1mb9er1K
MB8GA1UdIwQYMBaAFBzAEEaT64Hwin8YlNLQ5wA0myB7MA0GCSqGSIb3DQEBCwUA
A4IBAQA4PPDV6UTLfiP6mSVi/c+DFB3oEE0WOjSzk2jSIm+qSfLb4o1Pg3bkyfGF
ZpqCDR6Dh0D0CCmqKHyCbQdAip28MNMxYEK0P+qZsVbkrvXh7M8m1aLn52A8hIZZ
EXm1ntZVNsMSN+3jcBnbC2hVFX253ZEhxUeBajuCIw7ddMMnLVTESVmag/aT8XhP
SG8GduOSaZ/a4Fk/S5X0IXKt2HjYoTL0RB5uf4/rJ/Ml5L/qDoVXaBshZnO6NlK0
/9MdUNZ6YZFT7FzVTSieMI3R7RLb5no2C1WS4aou62ItAQLveNslN6+PhDbA+SLA
9hfDtxEDR1NYvgxMc7xYrPm+xM3b
-----END CERTIFICATE-----
