Certificate:
    Data:
        Version: 3 (0x2)
        Serial Number: 4124 (0x101c)
    Signature Algorithm: sha256WithRSAEncryption
        Issuer: C=34, ST=1234, L=1234, O=1234, OU=1234, CN=1234/emailAddress=1234
        Validity
            Not Before: Jun 10 14:36:10 2023 GMT
            Not After : Jun  7 14:36:10 2033 GMT
        Subject: C=34, ST=1234, L=1234, O=1234, OU=1234, CN=1234/emailAddress=1234
        Subject Public Key Info:
            Public Key Algorithm: rsaEncryption
                Public-Key: (2048 bit)
                Modulus:
                    00:e4:00:a0:e6:cf:c0:93:68:01:c7:7f:4d:05:f2:
                    18:34:0b:9e:35:b0:27:62:5e:f9:c1:a2:1a:62:83:
                    b8:9b:31:eb:0d:c4:fc:6d:cf:93:1c:c4:04:73:54:
                    79:50:62:d7:5f:8e:5e:24:10:a6:ee:2f:dc:d6:18:
                    05:27:e7:74:a3:87:30:57:6b:cb:3a:d9:dd:23:3f:
                    f7:18:ce:20:cd:18:6d:a6:ad:2b:48:e4:b4:f5:c7:
                    c0:b4:e4:a1:d8:18:fd:82:3e:a7:68:ca:bc:b5:da:
                    ea:78:f2:65:ad:b4:d5:6b:b0:84:e6:23:79:e6:86:
                    28:4d:33:59:f8:28:6c:67:3a:ee:07:60:ca:4d:73:
                    fb:2b:5a:dc:75:1c:83:02:ff:dd:9c:cf:ca:97:cd:
                    78:d5:58:f7:cf:da:03:4d:68:e0:63:e3:30:49:65:
                    70:b6:d5:2e:fb:38:1d:43:2b:4f:2d:e6:59:d0:ba:
                    c9:94:17:29:76:ce:f5:45:d0:aa:e7:29:6f:34:0a:
                    af:24:38:d2:a4:45:8a:56:02:ac:75:74:ab:28:3e:
                    d3:42:39:0f:9a:8b:27:e8:57:e2:5e:6d:ab:4b:0b:
                    31:8f:1b:25:49:db:1a:cb:15:99:12:42:87:33:26:
                    51:32:3e:f7:f7:cc:d0:ea:0f:5c:f0:77:47:82:ee:
                    93:e9
                Exponent: 65537 (0x10001)
        X509v3 extensions:
            X509v3 Basic Constraints: 
                CA:FALSE
            Netscape Comment: 
                OpenSSL Generated Certificate
            X509v3 Subject Key Identifier: 
                04:5E:D8:03:11:40:F4:75:97:BB:5B:6D:D7:D0:B6:49:A4:BC:61:2A
            X509v3 Authority Key Identifier: 
                keyid:3B:E8:BC:19:EB:9A:6A:C7:08:42:20:F3:6D:73:69:CD:51:24:92:E2

    Signature Algorithm: sha256WithRSAEncryption
         13:1f:85:b4:71:81:27:e4:14:ba:b1:c7:69:68:75:12:ce:c6:
         b1:ad:15:cc:eb:ee:aa:7e:4b:d9:13:c9:d2:8a:7e:47:11:9a:
         62:6d:bc:77:6c:4c:d6:00:59:ce:da:d9:49:55:d5:9e:e1:47:
         6d:7a:26:53:ca:03:5a:b2:70:e0:89:92:98:ff:70:27:ed:04:
         44:0a:fe:f1:fe:2f:2f:08:3f:3a:bf:6e:c3:bc:05:d0:21:01:
         21:a3:0a:0d:c9:48:da:3f:e4:0d:11:3e:b4:fe:d2:f1:b7:83:
         52:25:f5:0b:05:e4:2b:4c:f0:b0:38:d1:b5:c2:49:73:d3:0f:
         be:cd:ec:59:99:c6:71:e0:2d:92:01:b5:f7:aa:9f:d4:8c:86:
         e8:b5:48:a1:d9:1b:2b:32:28:c5:8f:ac:73:fa:7d:ec:ee:fa:
         cc:27:39:f5:5c:2d:d3:d3:ad:00:4b:33:29:6c:9d:d3:dc:d8:
         78:51:7e:b7:cd:11:a7:b1:46:66:14:2b:4f:ce:1e:7d:6b:a1:
         ca:1d:ce:6a:c9:46:d7:68:93:2d:04:1a:b2:7f:4e:ce:f2:f2:
         d9:0d:87:f4:5d:a6:12:b2:e5:34:e5:aa:1c:10:d9:dd:f2:17:
         d9:fa:47:f2:d1:24:1d:b4:3c:f7:49:55:4d:d6:b8:d7:c8:6b:
         5a:b3:fa:94
-----BEGIN CERTIFICATE-----
MIID0TCCArmgAwIBAgICEBwwDQYJKoZIhvcNAQELBQAwbTELMAkGA1UEBhMCMzQx
DTALBgNVBAgMBDEyMzQxDTALBgNVBAcMBDEyMzQxDTALBgNVBAoMBDEyMzQxDTAL
BgNVBAsMBDEyMzQxDTALBgNVBAMMBDEyMzQxEzARBgkqhkiG9w0BCQEWBDEyMzQw
HhcNMjMwNjEwMTQzNjEwWhcNMzMwNjA3MTQzNjEwWjBtMQswCQYDVQQGEwIzNDEN
MAsGA1UECAwEMTIzNDENMAsGA1UEBwwEMTIzNDENMAsGA1UECgwEMTIzNDENMAsG
A1UECwwEMTIzNDENMAsGA1UEAwwEMTIzNDETMBEGCSqGSIb3DQEJARYEMTIzNDCC
ASIwDQYJKoZIhvcNAQEBBQADggEPADCCAQoCggEBAOQAoObPwJNoAcd/TQXyGDQL
njWwJ2Je+cGiGmKDuJsx6w3E/G3PkxzEBHNUeVBi11+OXiQQpu4v3NYYBSfndKOH
MFdryzrZ3SM/9xjOIM0YbaatK0jktPXHwLTkodgY/YI+p2jKvLXa6njyZa201Wuw
hOYjeeaGKE0zWfgobGc67gdgyk1z+yta3HUcgwL/3ZzPypfNeNVY98/aA01o4GPj
MEllcLbVLvs4HUMrTy3mWdC6yZQXKXbO9UXQqucpbzQKryQ40qRFilYCrHV0qyg+
00I5D5qLJ+hX4l5tq0sLMY8bJUnbGssVmRJChzMmUTI+9/fM0OoPXPB3R4Luk+kC
AwEAAaN7MHkwCQYDVR0TBAIwADAsBglghkgBhvhCAQ0EHxYdT3BlblNTTCBHZW5l
cmF0ZWQgQ2VydGlmaWNhdGUwHQYDVR0OBBYEFARe2AMRQPR1l7tbbdfQtkmkvGEq
MB8GA1UdIwQYMBaAFDvovBnrmmrHCEIg821zac1RJJLiMA0GCSqGSIb3DQEBCwUA
A4IBAQATH4W0cYEn5BS6scdpaHUSzsaxrRXM6+6qfkvZE8nSin5HEZpibbx3bEzW
AFnO2tlJVdWe4UdteiZTygNasnDgiZKY/3An7QRECv7x/i8vCD86v27DvAXQIQEh
owoNyUjaP+QNET60/tLxt4NSJfULBeQrTPCwONG1wklz0w++zexZmcZx4C2SAbX3
qp/UjIbotUih2RsrMijFj6xz+n3s7vrMJzn1XC3T060ASzMpbJ3T3Nh4UX63zRGn
sUZmFCtPzh59a6HKHc5qyUbXaJMtBBqyf07O8vLZDYf0XaYSsuU05aocENnd8hfZ
+kfy0SQdtDz3SVVN1rjXyGtas/qU
-----END CERTIFICATE-----
