Certificate:
    Data:
        Version: 3 (0x2)
        Serial Number: 4125 (0x101d)
    Signature Algorithm: sha256WithRSAEncryption
        Issuer: C=34, ST=1234, L=1234, O=1234, OU=1234, CN=1234/emailAddress=1234
        Validity
            Not Before: Jun 10 14:36:14 2023 GMT
            Not After : Jun  7 14:36:14 2033 GMT
        Subject: C=34, ST=1234, L=1234, O=1234, OU=1234, CN=1234/emailAddress=1234
        Subject Public Key Info:
            Public Key Algorithm: rsaEncryption
                Public-Key: (2048 bit)
                Modulus:
                    00:e3:7d:5f:e9:b0:5a:d5:e1:17:59:c2:1c:13:bd:
                    bf:39:53:2b:09:c9:06:58:9c:b5:d6:47:dc:11:f5:
                    1e:17:d1:c9:0b:0f:d6:a7:f6:41:ca:13:50:d6:c8:
                    5e:b5:47:42:98:24:77:43:49:f2:0d:79:e0:14:d5:
                    ad:c4:65:89:77:54:2d:04:8a:71:76:27:f6:ba:5a:
                    42:7e:bc:81:eb:88:0b:cf:dd:48:27:9d:9c:96:51:
                    99:1f:11:27:b6:1d:3f:83:ba:82:bb:92:69:5c:ad:
                    ec:9a:c3:98:55:7b:6e:e2:06:91:86:0c:a2:f9:25:
                    64:7f:64:0a:9b:3d:2d:a2:08:24:a9:be:62:d5:c5:
                    e3:d3:71:63:a6:7e:dc:c7:ed:46:44:f7:82:57:0d:
                    95:05:13:90:4a:bb:fd:9b:72:84:c5:46:5c:6f:4b:
                    b3:e4:78:c5:54:81:72:8b:73:d2:a6:63:89:cf:5a:
                    cf:a5:6a:53:a0:f8:cc:c2:ba:9e:4c:dc:1d:b7:4b:
                    13:c3:ec:ff:f1:9c:00:20:3d:6e:91:ae:68:01:4d:
                    25:d6:ac:fe:f6:9f:54:1e:af:a1:10:ab:58:71:98:
                    2e:37:3d:4a:c4:59:ce:85:7a:79:55:1c:7c:5f:4a:
                    f1:70:0c:1d:81:c7:ca:d1:e7:09:32:a8:03:c7:c2:
                    5e:ff
                Exponent: 65537 (0x10001)
        X509v3 extensions:
            X509v3 Basic Constraints: 
                CA:FALSE
            Netscape Comment: 
                OpenSSL Generated Certificate
            X509v3 Subject Key Identifier: 
                0C:AC:21:37:DD:95:18:A1:9C:20:05:74:52:82:72:23:A5:85:32:81
            X509v3 Authority Key Identifier: 
                keyid:3B:E8:BC:19:EB:9A:6A:C7:08:42:20:F3:6D:73:69:CD:51:24:92:E2

    Signature Algorithm: sha256WithRSAEncryption
         26:23:65:97:23:e6:4c:e5:dc:5e:b1:69:b8:e3:6a:12:99:68:
         c0:d4:1b:73:b0:f0:98:3a:4a:b3:b8:e0:ed:85:f8:38:51:6f:
         d9:ac:a6:40:66:7c:bd:33:89:1c:ca:c9:12:64:fe:e7:ef:90:
         e5:e8:85:a7:6e:23:34:85:c6:a7:8e:7e:4b:e9:f1:c1:86:af:
         78:e2:3a:1e:09:b2:a3:62:5b:15:a4:c0:f3:2f:c2:12:ab:6c:
         76:33:23:ce:3c:3b:7a:5f:30:94:32:c8:17:69:6f:24:5f:d0:
         ae:3c:5c:ba:72:3c:cb:bb:00:0d:69:c8:68:76:43:a7:51:97:
         33:af:b6:86:b9:dc:a3:94:a5:a3:23:af:b4:59:30:65:d4:40:
         51:4a:56:9b:d1:ef:2c:42:28:ce:24:81:52:bc:4d:6a:e9:ae:
         aa:b9:32:fd:3d:ff:5b:19:b3:3a:72:74:56:03:89:85:20:14:
         00:b8:ed:7a:58:2f:2b:b3:a4:fb:dd:dd:bb:c8:c3:cb:6b:e5:
         c6:c4:c6:07:c8:07:b5:a7:7c:1e:90:40:a6:19:e6:10:13:13:
         c5:a3:c6:6a:13:e1:6f:b7:76:5a:7e:10:a8:60:28:ee:35:af:
         26:ca:1f:32:43:bc:bc:30:4b:d0:69:d6:03:f8:3e:8c:10:c3:
         a4:fe:5d:38
-----BEGIN CERTIFICATE-----
MIID0TCCArmgAwIBAgICEB0wDQYJKoZIhvcNAQELBQAwbTELMAkGA1UEBhMCMzQx
DTALBgNVBAgMBDEyMzQxDTALBgNVBAcMBDEyMzQxDTALBgNVBAoMBDEyMzQxDTAL
BgNVBAsMBDEyMzQxDTALBgNVBAMMBDEyMzQxEzARBgkqhkiG9w0BCQEWBDEyMzQw
HhcNMjMwNjEwMTQzNjE0WhcNMzMwNjA3MTQzNjE0WjBtMQswCQYDVQQGEwIzNDEN
MAsGA1UECAwEMTIzNDENMAsGA1UEBwwEMTIzNDENMAsGA1UECgwEMTIzNDENMAsG
A1UECwwEMTIzNDENMAsGA1UEAwwEMTIzNDETMBEGCSqGSIb3DQEJARYEMTIzNDCC
ASIwDQYJKoZIhvcNAQEBBQADggEPADCCAQoCggEBAON9X+mwWtXhF1nCHBO9vzlT
KwnJBlictdZH3BH1HhfRyQsP1qf2QcoTUNbIXrVHQpgkd0NJ8g154BTVrcRliXdU
LQSKcXYn9rpaQn68geuIC8/dSCednJZRmR8RJ7YdP4O6gruSaVyt7JrDmFV7buIG
kYYMovklZH9kCps9LaIIJKm+YtXF49NxY6Z+3MftRkT3glcNlQUTkEq7/ZtyhMVG
XG9Ls+R4xVSBcotz0qZjic9az6VqU6D4zMK6nkzcHbdLE8Ps//GcACA9bpGuaAFN
Jdas/vafVB6voRCrWHGYLjc9SsRZzoV6eVUcfF9K8XAMHYHHytHnCTKoA8fCXv8C
AwEAAaN7MHkwCQYDVR0TBAIwADAsBglghkgBhvhCAQ0EHxYdT3BlblNTTCBHZW5l
cmF0ZWQgQ2VydGlmaWNhdGUwHQYDVR0OBBYEFAysITfdlRihnCAFdFKCciOlhTKB
MB8GA1UdIwQYMBaAFDvovBnrmmrHCEIg821zac1RJJLiMA0GCSqGSIb3DQEBCwUA
A4IBAQAmI2WXI+ZM5dxesWm442oSmWjA1BtzsPCYOkqzuODthfg4UW/ZrKZAZny9
M4kcyskSZP7n75Dl6IWnbiM0hcanjn5L6fHBhq944joeCbKjYlsVpMDzL8ISq2x2
MyPOPDt6XzCUMsgXaW8kX9CuPFy6cjzLuwANachodkOnUZczr7aGudyjlKWjI6+0
WTBl1EBRSlab0e8sQijOJIFSvE1q6a6quTL9Pf9bGbM6cnRWA4mFIBQAuO16WC8r
s6T73d27yMPLa+XGxMYHyAe1p3wekECmGeYQExPFo8ZqE+Fvt3ZafhCoYCjuNa8m
yh8yQ7y8MEvQadYD+D6MEMOk/l04
-----END CERTIFICATE-----
