Certificate:
    Data:
        Version: 3 (0x2)
        Serial Number: 4126 (0x101e)
    Signature Algorithm: sha256WithRSAEncryption
        Issuer: C=54, ST=sda, L=43, O=124, OU=43, CN=wef/emailAddress=341
        Validity
            Not Before: Jun 10 14:45:06 2023 GMT
            Not After : Jun  7 14:45:06 2033 GMT
        Subject: C=43, ST=34, L=543, O=sd, OU=34, CN=54/emailAddress=234
        Subject Public Key Info:
            Public Key Algorithm: rsaEncryption
                Public-Key: (2048 bit)
                Modulus:
                    00:e4:00:a0:e6:cf:c0:93:68:01:c7:7f:4d:05:f2:
                    18:34:0b:9e:35:b0:27:62:5e:f9:c1:a2:1a:62:83:
                    b8:9b:31:eb:0d:c4:fc:6d:cf:93:1c:c4:04:73:54:
                    79:50:62:d7:5f:8e:5e:24:10:a6:ee:2f:dc:d6:18:
                    05:27:e7:74:a3:87:30:57:6b:cb:3a:d9:dd:23:3f:
                    f7:18:ce:20:cd:18:6d:a6:ad:2b:48:e4:b4:f5:c7:
                    c0:b4:e4:a1:d8:18:fd:82:3e:a7:68:ca:bc:b5:da:
                    ea:78:f2:65:ad:b4:d5:6b:b0:84:e6:23:79:e6:86:
                    28:4d:33:59:f8:28:6c:67:3a:ee:07:60:ca:4d:73:
                    fb:2b:5a:dc:75:1c:83:02:ff:dd:9c:cf:ca:97:cd:
                    78:d5:58:f7:cf:da:03:4d:68:e0:63:e3:30:49:65:
                    70:b6:d5:2e:fb:38:1d:43:2b:4f:2d:e6:59:d0:ba:
                    c9:94:17:29:76:ce:f5:45:d0:aa:e7:29:6f:34:0a:
                    af:24:38:d2:a4:45:8a:56:02:ac:75:74:ab:28:3e:
                    d3:42:39:0f:9a:8b:27:e8:57:e2:5e:6d:ab:4b:0b:
                    31:8f:1b:25:49:db:1a:cb:15:99:12:42:87:33:26:
                    51:32:3e:f7:f7:cc:d0:ea:0f:5c:f0:77:47:82:ee:
                    93:e9
                Exponent: 65537 (0x10001)
        X509v3 extensions:
            X509v3 Basic Constraints: 
                CA:FALSE
            Netscape Comment: 
                OpenSSL Generated Certificate
            X509v3 Subject Key Identifier: 
                04:5E:D8:03:11:40:F4:75:97:BB:5B:6D:D7:D0:B6:49:A4:BC:61:2A
            X509v3 Authority Key Identifier: 
                keyid:85:E5:74:61:7A:F1:DB:ED:F1:BB:E5:0B:04:37:14:F9:03:77:CC:8D

    Signature Algorithm: sha256WithRSAEncryption
         81:88:30:d8:ac:3e:25:0a:e9:c5:53:30:bb:6b:08:f6:ee:64:
         01:34:93:52:c8:38:d3:25:20:90:2a:fb:fd:e7:05:ae:dc:51:
         cd:04:51:86:53:02:ea:50:69:21:b7:b5:10:b3:7d:54:34:03:
         00:40:f8:48:a2:e6:b7:fe:0f:26:80:cb:fe:26:ab:00:68:db:
         13:0d:44:cb:4a:93:b1:ee:8d:4e:e5:df:30:29:0a:0a:ca:0a:
         fd:b6:32:53:17:05:d6:d9:96:87:4e:16:64:73:36:75:e4:80:
         d4:0b:9c:6a:fb:12:03:3f:8b:a7:a2:fe:de:97:1b:c0:55:88:
         a8:75:7d:07:eb:df:14:a5:22:40:50:8a:a4:4b:99:90:6e:7c:
         63:ef:e5:25:57:44:2d:8d:7e:ac:32:26:63:9b:f5:ed:a8:1b:
         65:2b:45:f6:61:23:49:45:67:5e:66:d1:c7:c0:02:c8:2d:42:
         c0:8e:49:80:02:ea:e1:18:e2:63:f9:3b:51:c8:ed:38:29:7c:
         d1:bb:94:77:a5:41:3c:6f:6b:f2:f1:b0:6f:e9:6a:4f:b6:cb:
         9e:09:37:2d:4b:fe:4a:00:c7:37:e8:cd:86:6a:83:16:99:76:
         43:b2:4e:2c:c6:c8:75:27:68:ec:a7:f2:43:0d:27:a0:11:2f:
         c3:0e:2c:70
-----BEGIN CERTIFICATE-----
MIIDvzCCAqegAwIBAgICEB4wDQYJKoZIhvcNAQELBQAwZTELMAkGA1UEBhMCNTQx
DDAKBgNVBAgMA3NkYTELMAkGA1UEBwwCNDMxDDAKBgNVBAoMAzEyNDELMAkGA1UE
CwwCNDMxDDAKBgNVBAMMA3dlZjESMBAGCSqGSIb3DQEJARYDMzQxMB4XDTIzMDYx
MDE0NDUwNloXDTMzMDYwNzE0NDUwNlowYzELMAkGA1UEBhMCNDMxCzAJBgNVBAgM
AjM0MQwwCgYDVQQHDAM1NDMxCzAJBgNVBAoMAnNkMQswCQYDVQQLDAIzNDELMAkG
A1UEAwwCNTQxEjAQBgkqhkiG9w0BCQEWAzIzNDCCASIwDQYJKoZIhvcNAQEBBQAD
ggEPADCCAQoCggEBAOQAoObPwJNoAcd/TQXyGDQLnjWwJ2Je+cGiGmKDuJsx6w3E
/G3PkxzEBHNUeVBi11+OXiQQpu4v3NYYBSfndKOHMFdryzrZ3SM/9xjOIM0Ybaat
K0jktPXHwLTkodgY/YI+p2jKvLXa6njyZa201WuwhOYjeeaGKE0zWfgobGc67gdg
yk1z+yta3HUcgwL/3ZzPypfNeNVY98/aA01o4GPjMEllcLbVLvs4HUMrTy3mWdC6
yZQXKXbO9UXQqucpbzQKryQ40qRFilYCrHV0qyg+00I5D5qLJ+hX4l5tq0sLMY8b
JUnbGssVmRJChzMmUTI+9/fM0OoPXPB3R4Luk+kCAwEAAaN7MHkwCQYDVR0TBAIw
ADAsBglghkgBhvhCAQ0EHxYdT3BlblNTTCBHZW5lcmF0ZWQgQ2VydGlmaWNhdGUw
HQYDVR0OBBYEFARe2AMRQPR1l7tbbdfQtkmkvGEqMB8GA1UdIwQYMBaAFIXldGF6
8dvt8bvlCwQ3FPkDd8yNMA0GCSqGSIb3DQEBCwUAA4IBAQCBiDDYrD4lCunFUzC7
awj27mQBNJNSyDjTJSCQKvv95wWu3FHNBFGGUwLqUGkht7UQs31UNAMAQPhIoua3
/g8mgMv+JqsAaNsTDUTLSpOx7o1O5d8wKQoKygr9tjJTFwXW2ZaHThZkczZ15IDU
C5xq+xIDP4unov7elxvAVYiodX0H698UpSJAUIqkS5mQbnxj7+UlV0QtjX6sMiZj
m/XtqBtlK0X2YSNJRWdeZtHHwALILULAjkmAAurhGOJj+TtRyO04KXzRu5R3pUE8
b2vy8bBv6WpPtsueCTctS/5KAMc36M2GaoMWmXZDsk4sxsh1J2jsp/JDDSegES/D
Dixw
-----END CERTIFICATE-----
