Certificate:
    Data:
        Version: 3 (0x2)
        Serial Number: 4127 (0x101f)
    Signature Algorithm: sha256WithRSAEncryption
        Issuer: C=54, ST=sda, L=43, O=124, OU=43, CN=wef/emailAddress=341
        Validity
            Not Before: Jun 10 14:45:10 2023 GMT
            Not After : Jun  7 14:45:10 2033 GMT
        Subject: C=43, ST=34, L=erg, O=rg, OU=erg, CN=wer/emailAddress=erwg
        Subject Public Key Info:
            Public Key Algorithm: rsaEncryption
                Public-Key: (2048 bit)
                Modulus:
                    00:e3:7d:5f:e9:b0:5a:d5:e1:17:59:c2:1c:13:bd:
                    bf:39:53:2b:09:c9:06:58:9c:b5:d6:47:dc:11:f5:
                    1e:17:d1:c9:0b:0f:d6:a7:f6:41:ca:13:50:d6:c8:
                    5e:b5:47:42:98:24:77:43:49:f2:0d:79:e0:14:d5:
                    ad:c4:65:89:77:54:2d:04:8a:71:76:27:f6:ba:5a:
                    42:7e:bc:81:eb:88:0b:cf:dd:48:27:9d:9c:96:51:
                    99:1f:11:27:b6:1d:3f:83:ba:82:bb:92:69:5c:ad:
                    ec:9a:c3:98:55:7b:6e:e2:06:91:86:0c:a2:f9:25:
                    64:7f:64:0a:9b:3d:2d:a2:08:24:a9:be:62:d5:c5:
                    e3:d3:71:63:a6:7e:dc:c7:ed:46:44:f7:82:57:0d:
                    95:05:13:90:4a:bb:fd:9b:72:84:c5:46:5c:6f:4b:
                    b3:e4:78:c5:54:81:72:8b:73:d2:a6:63:89:cf:5a:
                    cf:a5:6a:53:a0:f8:cc:c2:ba:9e:4c:dc:1d:b7:4b:
                    13:c3:ec:ff:f1:9c:00:20:3d:6e:91:ae:68:01:4d:
                    25:d6:ac:fe:f6:9f:54:1e:af:a1:10:ab:58:71:98:
                    2e:37:3d:4a:c4:59:ce:85:7a:79:55:1c:7c:5f:4a:
                    f1:70:0c:1d:81:c7:ca:d1:e7:09:32:a8:03:c7:c2:
                    5e:ff
                Exponent: 65537 (0x10001)
        X509v3 extensions:
            X509v3 Basic Constraints: 
                CA:FALSE
            Netscape Comment: 
                OpenSSL Generated Certificate
            X509v3 Subject Key Identifier: 
                0C:AC:21:37:DD:95:18:A1:9C:20:05:74:52:82:72:23:A5:85:32:81
            X509v3 Authority Key Identifier: 
                keyid:85:E5:74:61:7A:F1:DB:ED:F1:BB:E5:0B:04:37:14:F9:03:77:CC:8D

    Signature Algorithm: sha256WithRSAEncryption
         48:ac:fc:95:f4:ea:92:a8:82:51:a6:7e:1d:e8:87:94:52:35:
         c8:7c:d2:88:66:6b:ea:3c:8b:97:64:69:76:f2:bb:cc:63:5f:
         db:92:b5:dc:b1:bd:0a:67:5c:5d:15:97:dd:9f:11:10:86:da:
         4b:5d:58:51:bf:da:f0:01:bb:60:20:8c:f4:96:a1:60:90:dd:
         de:7e:59:22:e1:e0:07:42:28:27:92:9d:fe:c2:8b:bc:51:f3:
         71:8f:2b:a9:3a:68:dc:94:6b:09:23:4c:55:e0:c8:46:5b:2c:
         10:2a:c3:ad:95:3d:b4:1f:b3:af:1d:1b:b3:e4:ff:df:b4:f4:
         40:c7:d1:ea:2c:3b:b1:77:f2:7c:6b:99:f6:b1:1f:7c:24:ee:
         db:29:a7:4a:fb:f5:72:40:b3:ee:97:d0:77:03:9b:2a:a8:b2:
         9d:0b:ff:b7:ce:4e:cd:27:62:f8:c0:ed:ec:b1:3d:ad:ae:e2:
         43:b9:8c:f2:e4:47:21:d5:b0:8d:53:c8:54:d2:72:40:d9:db:
         23:52:36:49:bc:64:d0:88:79:4a:f1:e1:12:b3:fc:ed:ea:9b:
         64:9c:c7:3f:b4:d9:72:ba:80:a0:cd:de:c4:6e:bb:a8:2b:a5:
         10:bc:2f:b7:2f:b5:3a:a5:ce:87:1c:22:24:5f:d8:ad:49:ed:
         31:ff:e1:6a
-----BEGIN CERTIFICATE-----
MIIDwjCCAqqgAwIBAgICEB8wDQYJKoZIhvcNAQELBQAwZTELMAkGA1UEBhMCNTQx
DDAKBgNVBAgMA3NkYTELMAkGA1UEBwwCNDMxDDAKBgNVBAoMAzEyNDELMAkGA1UE
CwwCNDMxDDAKBgNVBAMMA3dlZjESMBAGCSqGSIb3DQEJARYDMzQxMB4XDTIzMDYx
MDE0NDUxMFoXDTMzMDYwNzE0NDUxMFowZjELMAkGA1UEBhMCNDMxCzAJBgNVBAgM
AjM0MQwwCgYDVQQHDANlcmcxCzAJBgNVBAoMAnJnMQwwCgYDVQQLDANlcmcxDDAK
BgNVBAMMA3dlcjETMBEGCSqGSIb3DQEJARYEZXJ3ZzCCASIwDQYJKoZIhvcNAQEB
BQADggEPADCCAQoCggEBAON9X+mwWtXhF1nCHBO9vzlTKwnJBlictdZH3BH1HhfR
yQsP1qf2QcoTUNbIXrVHQpgkd0NJ8g154BTVrcRliXdULQSKcXYn9rpaQn68geuI
C8/dSCednJZRmR8RJ7YdP4O6gruSaVyt7JrDmFV7buIGkYYMovklZH9kCps9LaII
JKm+YtXF49NxY6Z+3MftRkT3glcNlQUTkEq7/ZtyhMVGXG9Ls+R4xVSBcotz0qZj
ic9az6VqU6D4zMK6nkzcHbdLE8Ps//GcACA9bpGuaAFNJdas/vafVB6voRCrWHGY
Ljc9SsRZzoV6eVUcfF9K8XAMHYHHytHnCTKoA8fCXv8CAwEAAaN7MHkwCQYDVR0T
BAIwADAsBglghkgBhvhCAQ0EHxYdT3BlblNTTCBHZW5lcmF0ZWQgQ2VydGlmaWNh
dGUwHQYDVR0OBBYEFAysITfdlRihnCAFdFKCciOlhTKBMB8GA1UdIwQYMBaAFIXl
dGF68dvt8bvlCwQ3FPkDd8yNMA0GCSqGSIb3DQEBCwUAA4IBAQBIrPyV9OqSqIJR
pn4d6IeUUjXIfNKIZmvqPIuXZGl28rvMY1/bkrXcsb0KZ1xdFZfdnxEQhtpLXVhR
v9rwAbtgIIz0lqFgkN3eflki4eAHQignkp3+wou8UfNxjyupOmjclGsJI0xV4MhG
WywQKsOtlT20H7OvHRuz5P/ftPRAx9HqLDuxd/J8a5n2sR98JO7bKadK+/VyQLPu
l9B3A5sqqLKdC/+3zk7NJ2L4wO3ssT2truJDuYzy5Ech1bCNU8hU0nJA2dsjUjZJ
vGTQiHlK8eESs/zt6ptknMc/tNlyuoCgzd7EbruoK6UQvC+3L7U6pc6HHCIkX9it
Se0x/+Fq
-----END CERTIFICATE-----
