Certificate:
    Data:
        Version: 3 (0x2)
        Serial Number: 4128 (0x1020)
    Signature Algorithm: sha256WithRSAEncryption
        Issuer: C=12, ST=1234, L=1234, O=1234, OU=1234, CN=1234/emailAddress=1234
        Validity
            Not Before: Jun 10 14:50:27 2023 GMT
            Not After : Jun  7 14:50:27 2033 GMT
        Subject: C=34, ST=1234, L=1234, O=1234, OU=1234, CN=1234/emailAddress=1234
        Subject Public Key Info:
            Public Key Algorithm: rsaEncryption
                Public-Key: (2048 bit)
                Modulus:
                    00:a6:72:d2:83:9d:5e:13:e0:a4:88:0a:dc:04:cb:
                    55:72:91:2b:44:66:db:05:25:22:9a:d8:77:1b:ee:
                    e7:a9:71:60:d6:db:da:b4:12:c2:c8:16:45:69:98:
                    3d:9d:4f:29:03:2b:31:9f:1e:60:4f:e1:6b:02:5b:
                    24:85:f1:4c:32:af:b6:40:c9:ee:bc:98:d8:39:a1:
                    14:9a:d7:54:0d:ff:a6:25:fd:e6:58:7d:df:2b:91:
                    aa:08:25:ae:c0:f8:c5:1a:4c:1b:6b:d5:a2:e3:a8:
                    a9:47:57:1d:fd:96:94:49:be:18:8b:72:c1:d1:08:
                    97:b6:1a:28:8d:86:6b:c4:5d:da:11:43:d6:5d:16:
                    cc:99:87:e5:d7:fd:55:f8:cc:40:ce:a9:31:e8:f2:
                    44:04:e0:09:4c:2c:0a:c6:26:47:02:02:db:fc:42:
                    90:93:87:a9:1c:1c:38:ff:7f:bd:b4:65:f8:89:fe:
                    87:a6:ce:41:bc:ba:56:33:fa:c9:36:bf:8f:2b:0d:
                    50:ea:23:f7:40:44:32:f6:d5:a5:db:96:20:58:7c:
                    da:9f:25:7f:d7:e2:96:45:9d:7e:5c:a6:36:b8:1c:
                    fc:60:95:02:23:79:59:7a:ec:a5:ef:10:10:a7:12:
                    a5:bb:aa:52:52:f1:33:59:1e:63:76:b3:8e:dd:9c:
                    2f:37
                Exponent: 65537 (0x10001)
        X509v3 extensions:
            X509v3 Basic Constraints: 
                CA:FALSE
            Netscape Comment: 
                OpenSSL Generated Certificate
            X509v3 Subject Key Identifier: 
                E1:96:A0:90:CD:6F:6A:D0:49:22:BD:5F:E8:19:12:79:34:0E:12:D8
            X509v3 Authority Key Identifier: 
                keyid:91:57:EB:18:90:E6:51:9D:35:B8:82:2C:94:B3:81:41:5F:86:37:A4

    Signature Algorithm: sha256WithRSAEncryption
         0e:ec:b9:10:f2:b8:15:fd:6d:bf:21:d4:9d:7a:c8:dd:a5:26:
         8e:58:fa:4f:fb:be:dd:e4:a8:62:40:a9:9e:6b:90:dc:73:64:
         50:45:62:c4:74:1e:7d:8d:8b:7b:e3:98:5e:d2:4c:7c:1d:b9:
         e3:ba:eb:b8:5f:8a:c2:9a:20:95:3b:3d:b6:f5:de:fd:81:5f:
         3a:b1:1a:6a:b6:3a:db:37:07:ad:35:29:79:14:ad:f6:4d:ea:
         8b:b0:ea:4c:00:e3:93:ce:3d:1b:b9:97:05:d0:10:30:30:33:
         66:58:b5:39:98:76:07:98:aa:5c:20:b7:9d:4a:d7:93:d1:59:
         77:90:98:0f:a5:e0:82:70:09:28:4b:15:81:2f:d1:d4:4a:f0:
         e2:3f:6a:30:c0:78:5d:c7:8b:36:07:70:4b:81:86:db:e9:ea:
         24:64:45:69:44:52:ba:c5:f1:bf:a3:cf:22:99:e3:76:02:b3:
         2d:73:84:4e:8c:8c:8c:89:92:cc:9b:ef:a0:ac:25:06:44:43:
         95:e6:c6:62:93:b2:c0:5b:d7:96:87:03:46:0b:52:72:47:5c:
         d1:2e:f7:b3:e4:40:48:32:e3:a4:12:a9:0e:0f:b8:3e:3e:df:
         f3:6a:5b:19:8a:9c:4f:75:b6:a0:57:e0:d0:30:f7:69:91:6f:
         b7:16:6d:7b
-----BEGIN CERTIFICATE-----
MIID0TCCArmgAwIBAgICECAwDQYJKoZIhvcNAQELBQAwbTELMAkGA1UEBhMCMTIx
DTALBgNVBAgMBDEyMzQxDTALBgNVBAcMBDEyMzQxDTALBgNVBAoMBDEyMzQxDTAL
BgNVBAsMBDEyMzQxDTALBgNVBAMMBDEyMzQxEzARBgkqhkiG9w0BCQEWBDEyMzQw
HhcNMjMwNjEwMTQ1MDI3WhcNMzMwNjA3MTQ1MDI3WjBtMQswCQYDVQQGEwIzNDEN
MAsGA1UECAwEMTIzNDENMAsGA1UEBwwEMTIzNDENMAsGA1UECgwEMTIzNDENMAsG
A1UECwwEMTIzNDENMAsGA1UEAwwEMTIzNDETMBEGCSqGSIb3DQEJARYEMTIzNDCC
ASIwDQYJKoZIhvcNAQEBBQADggEPADCCAQoCggEBAKZy0oOdXhPgpIgK3ATLVXKR
K0Rm2wUlIprYdxvu56lxYNbb2rQSwsgWRWmYPZ1PKQMrMZ8eYE/hawJbJIXxTDKv
tkDJ7ryY2DmhFJrXVA3/piX95lh93yuRqgglrsD4xRpMG2vVouOoqUdXHf2WlEm+
GItywdEIl7YaKI2Ga8Rd2hFD1l0WzJmH5df9VfjMQM6pMejyRATgCUwsCsYmRwIC
2/xCkJOHqRwcOP9/vbRl+In+h6bOQby6VjP6yTa/jysNUOoj90BEMvbVpduWIFh8
2p8lf9filkWdflymNrgc/GCVAiN5WXrspe8QEKcSpbuqUlLxM1keY3azjt2cLzcC
AwEAAaN7MHkwCQYDVR0TBAIwADAsBglghkgBhvhCAQ0EHxYdT3BlblNTTCBHZW5l
cmF0ZWQgQ2VydGlmaWNhdGUwHQYDVR0OBBYEFOGWoJDNb2rQSSK9X+gZEnk0DhLY
MB8GA1UdIwQYMBaAFJFX6xiQ5lGdNbiCLJSzgUFfhjekMA0GCSqGSIb3DQEBCwUA
A4IBAQAO7LkQ8rgV/W2/IdSdesjdpSaOWPpP+77d5KhiQKmea5Dcc2RQRWLEdB59
jYt745he0kx8Hbnjuuu4X4rCmiCVOz229d79gV86sRpqtjrbNwetNSl5FK32TeqL
sOpMAOOTzj0buZcF0BAwMDNmWLU5mHYHmKpcILedSteT0Vl3kJgPpeCCcAkoSxWB
L9HUSvDiP2owwHhdx4s2B3BLgYbb6eokZEVpRFK6xfG/o88imeN2ArMtc4ROjIyM
iZLMm++grCUGREOV5sZik7LAW9eWhwNGC1JyR1zRLvez5EBIMuOkEqkOD7g+Pt/z
alsZipxPdbagV+DQMPdpkW+3Fm17
-----END CERTIFICATE-----
