Certificate:
    Data:
        Version: 3 (0x2)
        Serial Number: 4129 (0x1021)
    Signature Algorithm: sha256WithRSAEncryption
        Issuer: C=12, ST=1234, L=1234, O=1234, OU=1234, CN=1234/emailAddress=1234
        Validity
            Not Before: Jun 10 14:50:30 2023 GMT
            Not After : Jun  7 14:50:30 2033 GMT
        Subject: C=13, ST=1234, L=1234, O=1234, OU=1234, CN=1234/emailAddress=1234
        Subject Public Key Info:
            Public Key Algorithm: rsaEncryption
                Public-Key: (2048 bit)
                Modulus:
                    00:ed:0c:17:e3:77:d2:d0:09:41:be:27:93:63:ea:
                    6f:62:35:fe:06:80:f1:94:eb:e6:e7:0d:f9:90:8d:
                    6e:a8:a7:96:50:62:6a:bd:21:47:17:e8:c3:c1:63:
                    d0:6a:aa:eb:16:11:c6:8b:d0:f1:48:b6:7d:97:c0:
                    78:c1:a3:e7:f8:a7:dc:c6:7d:74:07:dd:ab:74:5e:
                    e7:99:0d:d3:de:32:a5:81:90:51:89:44:51:ad:e7:
                    78:60:fa:47:51:07:c7:11:35:a7:a0:f6:e8:f2:89:
                    b6:ad:03:ca:04:b2:26:e2:89:58:f1:8c:c2:9c:39:
                    d5:09:5c:d8:d2:3a:8a:f8:55:f7:72:8e:dd:19:3a:
                    bf:51:d5:e1:e8:e2:7a:d7:90:aa:b8:40:70:13:f2:
                    57:ab:47:ab:97:9b:b6:69:93:3b:81:c6:85:cb:79:
                    2a:be:c3:88:c2:1f:c7:01:6d:c2:e2:2e:bd:03:54:
                    f3:e4:8d:b9:aa:54:eb:d5:32:59:2a:73:90:86:d6:
                    91:e9:50:2e:2a:14:85:ee:96:8a:5f:e9:34:60:f5:
                    57:9f:f4:6d:af:17:69:bf:03:af:64:5d:ba:17:ff:
                    7d:76:b4:a7:1f:e3:1c:33:ab:65:cc:67:a0:84:7d:
                    84:33:84:c9:a3:b0:f8:9a:97:48:ca:3b:f9:d5:c2:
                    66:4b
                Exponent: 65537 (0x10001)
        X509v3 extensions:
            X509v3 Basic Constraints: 
                CA:FALSE
            Netscape Comment: 
                OpenSSL Generated Certificate
            X509v3 Subject Key Identifier: 
                35:58:6B:55:3F:67:8A:92:0A:B4:37:61:86:8F:12:6C:FB:93:ED:B3
            X509v3 Authority Key Identifier: 
                keyid:91:57:EB:18:90:E6:51:9D:35:B8:82:2C:94:B3:81:41:5F:86:37:A4

    Signature Algorithm: sha256WithRSAEncryption
         d7:41:c8:fa:46:49:b9:fa:56:16:62:0b:89:73:02:5c:dd:10:
         37:4d:0c:6f:25:50:37:0a:b0:1f:45:7b:f4:12:e4:d1:42:38:
         b5:fd:98:f2:7c:3d:89:04:ed:b4:dd:40:a9:88:47:7c:36:3d:
         fa:4e:7c:85:08:eb:2b:3e:c7:f2:b1:28:47:56:10:13:d3:8e:
         7f:3f:cb:fa:a4:4a:9d:5d:00:94:1c:0c:94:d8:c1:0e:12:42:
         ff:ec:3f:56:8b:66:c3:a5:39:36:d8:fe:01:73:90:fa:5f:08:
         cc:8d:0c:99:75:7c:73:22:29:59:f4:17:99:80:d1:73:b1:ed:
         8d:3b:f0:79:b8:2f:92:db:72:53:08:5e:e9:ee:81:9b:68:24:
         df:e6:0a:67:6a:82:81:39:6d:d7:f3:1a:fa:90:d5:26:cd:33:
         e6:34:42:7e:47:9b:10:2c:98:01:bf:db:e6:e1:f7:48:9f:cd:
         d9:24:93:12:99:a0:75:b2:ef:f8:67:2d:14:f8:82:65:32:3b:
         4e:2c:c2:74:f9:bd:11:ad:8f:a2:65:b0:32:fb:2d:44:ea:83:
         9e:12:28:c4:31:2e:20:5b:3c:7e:f6:b2:f6:fc:de:2e:31:2c:
         d7:d6:26:0b:8b:41:c0:24:dc:e3:d1:54:d4:74:2e:7c:1b:a4:
         96:5d:a0:1b
-----BEGIN CERTIFICATE-----
MIID0TCCArmgAwIBAgICECEwDQYJKoZIhvcNAQELBQAwbTELMAkGA1UEBhMCMTIx
DTALBgNVBAgMBDEyMzQxDTALBgNVBAcMBDEyMzQxDTALBgNVBAoMBDEyMzQxDTAL
BgNVBAsMBDEyMzQxDTALBgNVBAMMBDEyMzQxEzARBgkqhkiG9w0BCQEWBDEyMzQw
HhcNMjMwNjEwMTQ1MDMwWhcNMzMwNjA3MTQ1MDMwWjBtMQswCQYDVQQGEwIxMzEN
MAsGA1UECAwEMTIzNDENMAsGA1UEBwwEMTIzNDENMAsGA1UECgwEMTIzNDENMAsG
A1UECwwEMTIzNDENMAsGA1UEAwwEMTIzNDETMBEGCSqGSIb3DQEJARYEMTIzNDCC
ASIwDQYJKoZIhvcNAQEBBQADggEPADCCAQoCggEBAO0MF+N30tAJQb4nk2Pqb2I1
/gaA8ZTr5ucN+ZCNbqinllBiar0hRxfow8Fj0Gqq6xYRxovQ8Ui2fZfAeMGj5/in
3MZ9dAfdq3Re55kN094ypYGQUYlEUa3neGD6R1EHxxE1p6D26PKJtq0DygSyJuKJ
WPGMwpw51Qlc2NI6ivhV93KO3Rk6v1HV4ejieteQqrhAcBPyV6tHq5ebtmmTO4HG
hct5Kr7DiMIfxwFtwuIuvQNU8+SNuapU69UyWSpzkIbWkelQLioUhe6Wil/pNGD1
V5/0ba8Xab8Dr2Rduhf/fXa0px/jHDOrZcxnoIR9hDOEyaOw+JqXSMo7+dXCZksC
AwEAAaN7MHkwCQYDVR0TBAIwADAsBglghkgBhvhCAQ0EHxYdT3BlblNTTCBHZW5l
cmF0ZWQgQ2VydGlmaWNhdGUwHQYDVR0OBBYEFDVYa1U/Z4qSCrQ3YYaPEmz7k+2z
MB8GA1UdIwQYMBaAFJFX6xiQ5lGdNbiCLJSzgUFfhjekMA0GCSqGSIb3DQEBCwUA
A4IBAQDXQcj6Rkm5+lYWYguJcwJc3RA3TQxvJVA3CrAfRXv0EuTRQji1/ZjyfD2J
BO203UCpiEd8Nj36TnyFCOsrPsfysShHVhAT045/P8v6pEqdXQCUHAyU2MEOEkL/
7D9Wi2bDpTk22P4Bc5D6XwjMjQyZdXxzIilZ9BeZgNFzse2NO/B5uC+S23JTCF7p
7oGbaCTf5gpnaoKBOW3X8xr6kNUmzTPmNEJ+R5sQLJgBv9vm4fdIn83ZJJMSmaB1
su/4Zy0U+IJlMjtOLMJ0+b0RrY+iZbAy+y1E6oOeEijEMS4gWzx+9rL2/N4uMSzX
1iYLi0HAJNzj0VTUdC58G6SWXaAb
-----END CERTIFICATE-----
