Certificate:
    Data:
        Version: 3 (0x2)
        Serial Number: 4130 (0x1022)
    Signature Algorithm: sha256WithRSAEncryption
        Issuer: C=34, ST=1234, L=1234, O=1234, OU=1234, CN=1234/emailAddress=1234
        Validity
            Not Before: Dec 31 16:01:06 2022 GMT
            Not After : Dec 28 16:01:06 2032 GMT
        Subject: C=34, ST=1234, L=1234, O=1234, OU=1234, CN=1234/emailAddress=1234
        Subject Public Key Info:
            Public Key Algorithm: rsaEncryption
                Public-Key: (2048 bit)
                Modulus:
                    00:99:e4:dd:d5:02:04:28:97:58:6e:7a:f3:9c:bb:
                    83:96:37:3d:06:d8:51:f7:07:c8:55:08:a0:d1:89:
                    8f:35:be:2d:7a:60:6d:3a:73:82:57:11:c2:dd:af:
                    6f:aa:c6:58:99:cb:27:36:e4:79:ce:75:88:8f:f5:
                    7f:e5:b9:5b:e2:b6:b3:00:ba:a3:60:86:c3:60:f5:
                    93:29:47:fa:8b:ce:73:d8:a0:6e:37:c8:0a:b6:a6:
                    21:19:cd:89:20:64:e6:70:af:ba:15:a5:8a:7c:4b:
                    b2:7f:c7:d1:bd:b3:12:e4:d4:d2:fa:c7:e3:ab:c1:
                    5a:4c:79:98:84:5f:ec:cc:f8:be:9f:42:31:ef:61:
                    43:0a:78:08:d7:45:3f:83:5b:9c:d2:1b:3a:30:61:
                    4e:71:3b:35:f3:89:e8:b5:d3:20:66:9c:f4:5d:93:
                    49:ae:15:96:3f:25:32:5a:2a:fb:6f:7f:80:74:82:
                    12:83:2b:fa:0f:96:41:ab:30:48:c0:98:8c:4f:0e:
                    cb:8e:2c:38:f3:e2:1f:1d:2a:4c:5d:05:54:35:13:
                    62:90:0b:83:30:c0:c7:35:c4:01:21:3f:68:fb:3d:
                    60:98:ce:07:c6:12:6e:7b:6d:45:a6:4b:ab:f8:f7:
                    83:37:28:ee:36:79:d6:cf:d7:2d:58:63:fe:44:70:
                    94:fd
                Exponent: 65537 (0x10001)
        X509v3 extensions:
            X509v3 Basic Constraints: 
                CA:FALSE
            Netscape Comment: 
                OpenSSL Generated Certificate
            X509v3 Subject Key Identifier: 
                27:E1:86:F6:AE:25:23:9C:CD:95:3A:A0:CA:47:C5:13:91:D2:CF:3C
            X509v3 Authority Key Identifier: 
                keyid:70:C3:2F:DA:8F:BF:4E:99:6B:3A:19:4A:9A:4F:00:98:FC:45:52:68

    Signature Algorithm: sha256WithRSAEncryption
         05:03:7f:82:d5:be:77:15:1f:a3:d1:e2:7d:27:f2:7e:f5:46:
         12:c8:c9:19:7f:8d:3c:7a:80:5a:66:f0:0e:64:bb:2c:d0:ab:
         c5:c0:b8:9d:aa:01:22:1e:ca:56:50:b7:b6:54:0b:aa:fb:60:
         0b:70:81:b0:44:26:04:a4:68:6c:55:9f:fc:30:5c:d0:32:f5:
         a9:8b:45:e2:11:6b:00:96:32:65:92:41:f4:d7:88:d4:4f:6e:
         f1:ab:50:67:ea:0e:96:5c:30:ea:ea:11:77:6f:a2:f9:e2:59:
         8c:c0:6c:cd:d7:bc:dd:29:0b:d5:26:e0:0a:6e:b6:5c:78:85:
         46:61:a6:33:50:73:c9:96:17:1e:d1:93:91:43:3e:bd:b8:b4:
         bf:92:dc:d0:59:34:51:64:74:8f:24:69:b2:f2:dc:73:52:39:
         bb:03:3c:86:df:a8:4e:5e:77:91:55:22:dd:8d:ea:bb:03:9f:
         52:8f:9f:cd:9a:fc:70:ad:1d:25:17:e4:5b:6e:2d:f2:a5:d9:
         b6:01:52:e6:1b:2e:d3:7e:47:16:d8:b8:e4:8c:19:16:a0:fc:
         90:e1:ba:20:f4:95:e5:42:7e:32:02:d0:f8:95:11:ad:b6:9a:
         9a:f2:87:82:2e:ad:36:ff:aa:31:cd:82:d6:d9:2a:dc:e5:e5:
         81:ea:71:c4
-----BEGIN CERTIFICATE-----
MIID0TCCArmgAwIBAgICECIwDQYJKoZIhvcNAQELBQAwbTELMAkGA1UEBhMCMzQx
DTALBgNVBAgMBDEyMzQxDTALBgNVBAcMBDEyMzQxDTALBgNVBAoMBDEyMzQxDTAL
BgNVBAsMBDEyMzQxDTALBgNVBAMMBDEyMzQxEzARBgkqhkiG9w0BCQEWBDEyMzQw
HhcNMjIxMjMxMTYwMTA2WhcNMzIxMjI4MTYwMTA2WjBtMQswCQYDVQQGEwIzNDEN
MAsGA1UECAwEMTIzNDENMAsGA1UEBwwEMTIzNDENMAsGA1UECgwEMTIzNDENMAsG
A1UECwwEMTIzNDENMAsGA1UEAwwEMTIzNDETMBEGCSqGSIb3DQEJARYEMTIzNDCC
ASIwDQYJKoZIhvcNAQEBBQADggEPADCCAQoCggEBAJnk3dUCBCiXWG5685y7g5Y3
PQbYUfcHyFUIoNGJjzW+LXpgbTpzglcRwt2vb6rGWJnLJzbkec51iI/1f+W5W+K2
swC6o2CGw2D1kylH+ovOc9igbjfICramIRnNiSBk5nCvuhWlinxLsn/H0b2zEuTU
0vrH46vBWkx5mIRf7Mz4vp9CMe9hQwp4CNdFP4NbnNIbOjBhTnE7NfOJ6LXTIGac
9F2TSa4Vlj8lMloq+29/gHSCEoMr+g+WQaswSMCYjE8Oy44sOPPiHx0qTF0FVDUT
YpALgzDAxzXEASE/aPs9YJjOB8YSbnttRaZLq/j3gzco7jZ51s/XLVhj/kRwlP0C
AwEAAaN7MHkwCQYDVR0TBAIwADAsBglghkgBhvhCAQ0EHxYdT3BlblNTTCBHZW5l
cmF0ZWQgQ2VydGlmaWNhdGUwHQYDVR0OBBYEFCfhhvauJSOczZU6oMpHxROR0s88
MB8GA1UdIwQYMBaAFHDDL9qPv06ZazoZSppPAJj8RVJoMA0GCSqGSIb3DQEBCwUA
A4IBAQAFA3+C1b53FR+j0eJ9J/J+9UYSyMkZf408eoBaZvAOZLss0KvFwLidqgEi
HspWULe2VAuq+2ALcIGwRCYEpGhsVZ/8MFzQMvWpi0XiEWsAljJlkkH014jUT27x
q1Bn6g6WXDDq6hF3b6L54lmMwGzN17zdKQvVJuAKbrZceIVGYaYzUHPJlhce0ZOR
Qz69uLS/ktzQWTRRZHSPJGmy8txzUjm7AzyG36hOXneRVSLdjeq7A59Sj5/Nmvxw
rR0lF+Rbbi3ypdm2AVLmGy7TfkcW2LjkjBkWoPyQ4bog9JXlQn4yAtD4lRGttpqa
8oeCLq02/6oxzYLW2Src5eWB6nHE
-----END CERTIFICATE-----
