Certificate:
    Data:
        Version: 3 (0x2)
        Serial Number: 4131 (0x1023)
    Signature Algorithm: sha256WithRSAEncryption
        Issuer: C=34, ST=1234, L=1234, O=1234, OU=1234, CN=1234/emailAddress=1234
        Validity
            Not Before: Dec 31 16:01:09 2022 GMT
            Not After : Dec 28 16:01:09 2032 GMT
        Subject: C=34, ST=1234, L=1234, O=1234, OU=1234, CN=1234/emailAddress=1234
        Subject Public Key Info:
            Public Key Algorithm: rsaEncryption
                Public-Key: (2048 bit)
                Modulus:
                    00:c6:85:6f:3b:ff:45:aa:7a:a1:10:c8:e3:40:83:
                    c0:33:54:a3:ac:fc:b3:21:cd:a8:63:ec:52:07:16:
                    19:c1:c5:3f:ed:0b:8d:18:f9:10:08:b6:42:ef:6c:
                    b2:35:af:85:a0:93:42:fd:b2:8f:c1:99:22:3a:48:
                    42:87:44:0d:87:6b:42:5f:c4:ab:8b:5f:87:9c:fa:
                    18:3e:ad:68:3d:64:ed:a7:35:d4:99:b6:ae:4a:f2:
                    b3:17:3a:6b:fc:c5:de:dd:25:03:78:8d:ea:c6:15:
                    5d:f5:e6:66:55:3e:7f:cc:22:32:69:a6:1a:53:c5:
                    d1:60:e1:91:fb:da:65:87:93:5f:7c:3f:e7:ee:8f:
                    69:e8:bb:bc:5f:91:c4:de:fa:e0:b8:56:ee:a2:5d:
                    83:1f:a1:0e:83:9b:c9:80:3a:d6:1a:f5:79:ac:09:
                    95:3b:f4:20:35:d1:0b:a1:be:1f:7a:7d:6f:cd:94:
                    f5:55:c8:55:03:3d:9b:cb:d3:a6:bc:72:0f:a7:66:
                    70:ac:ea:2b:78:b9:45:af:3b:08:c4:e5:6c:4c:54:
                    ef:eb:e0:cb:25:9b:22:41:f7:d9:c5:ae:c1:94:77:
                    69:56:b7:88:0f:92:85:c9:c6:67:1c:99:e7:ad:18:
                    1f:48:32:d2:3e:3b:99:19:03:b7:f4:3a:0d:20:0e:
                    ad:4f
                Exponent: 65537 (0x10001)
        X509v3 extensions:
            X509v3 Basic Constraints: 
                CA:FALSE
            Netscape Comment: 
                OpenSSL Generated Certificate
            X509v3 Subject Key Identifier: 
                D7:B1:9F:3F:22:13:FA:57:41:8C:51:B0:9A:7A:8C:4F:4B:F2:5A:E9
            X509v3 Authority Key Identifier: 
                keyid:70:C3:2F:DA:8F:BF:4E:99:6B:3A:19:4A:9A:4F:00:98:FC:45:52:68

    Signature Algorithm: sha256WithRSAEncryption
         1f:59:f7:dc:c4:94:09:1a:5f:1a:45:b5:8d:0b:af:90:2a:d8:
         39:69:64:13:50:ea:69:5c:57:20:7d:91:9c:71:c7:1a:75:51:
         04:0b:ca:66:e8:8c:42:67:44:cc:22:60:7d:af:d3:f5:c0:f1:
         42:6c:b8:7f:bf:a7:e5:19:ab:c8:db:ce:e5:53:02:57:52:90:
         e1:5e:6b:da:b7:92:98:58:39:72:6a:69:c0:3a:14:b8:5f:d2:
         18:12:22:71:7f:cf:40:e4:9a:4f:f4:33:37:83:9c:61:52:12:
         f2:e4:81:97:7e:65:81:e6:f5:4e:b8:d0:a9:74:57:85:3b:a1:
         6f:17:1b:8e:7a:d6:1e:77:c4:6d:92:1c:03:73:bb:6c:ba:ec:
         4f:54:87:3f:31:67:a1:02:8f:7a:ea:d3:6f:ab:b1:05:82:74:
         42:e7:8e:12:c4:fc:47:4e:3a:6a:2d:f5:53:84:a0:4f:45:ec:
         e2:4f:0f:6e:b6:02:a7:36:98:b3:6e:b3:60:0a:d4:5d:fd:69:
         63:67:39:19:28:64:06:ea:9a:f9:79:9a:a6:c4:ea:7f:f9:be:
         df:c0:18:05:a6:54:86:6b:74:b6:4c:04:cb:a9:30:32:cd:7d:
         69:ad:44:16:80:bb:93:32:63:8a:48:ac:a6:06:19:e6:d2:15:
         c8:dd:8e:97
-----BEGIN CERTIFICATE-----
MIID0TCCArmgAwIBAgICECMwDQYJKoZIhvcNAQELBQAwbTELMAkGA1UEBhMCMzQx
DTALBgNVBAgMBDEyMzQxDTALBgNVBAcMBDEyMzQxDTALBgNVBAoMBDEyMzQxDTAL
BgNVBAsMBDEyMzQxDTALBgNVBAMMBDEyMzQxEzARBgkqhkiG9w0BCQEWBDEyMzQw
HhcNMjIxMjMxMTYwMTA5WhcNMzIxMjI4MTYwMTA5WjBtMQswCQYDVQQGEwIzNDEN
MAsGA1UECAwEMTIzNDENMAsGA1UEBwwEMTIzNDENMAsGA1UECgwEMTIzNDENMAsG
A1UECwwEMTIzNDENMAsGA1UEAwwEMTIzNDETMBEGCSqGSIb3DQEJARYEMTIzNDCC
ASIwDQYJKoZIhvcNAQEBBQADggEPADCCAQoCggEBAMaFbzv/Rap6oRDI40CDwDNU
o6z8syHNqGPsUgcWGcHFP+0LjRj5EAi2Qu9ssjWvhaCTQv2yj8GZIjpIQodEDYdr
Ql/Eq4tfh5z6GD6taD1k7ac11Jm2rkrysxc6a/zF3t0lA3iN6sYVXfXmZlU+f8wi
MmmmGlPF0WDhkfvaZYeTX3w/5+6Paei7vF+RxN764LhW7qJdgx+hDoObyYA61hr1
eawJlTv0IDXRC6G+H3p9b82U9VXIVQM9m8vTprxyD6dmcKzqK3i5Ra87CMTlbExU
7+vgyyWbIkH32cWuwZR3aVa3iA+ShcnGZxyZ560YH0gy0j47mRkDt/Q6DSAOrU8C
AwEAAaN7MHkwCQYDVR0TBAIwADAsBglghkgBhvhCAQ0EHxYdT3BlblNTTCBHZW5l
cmF0ZWQgQ2VydGlmaWNhdGUwHQYDVR0OBBYEFNexnz8iE/pXQYxRsJp6jE9L8lrp
MB8GA1UdIwQYMBaAFHDDL9qPv06ZazoZSppPAJj8RVJoMA0GCSqGSIb3DQEBCwUA
A4IBAQAfWffcxJQJGl8aRbWNC6+QKtg5aWQTUOppXFcgfZGccccadVEEC8pm6IxC
Z0TMImB9r9P1wPFCbLh/v6flGavI287lUwJXUpDhXmvat5KYWDlyamnAOhS4X9IY
EiJxf89A5JpP9DM3g5xhUhLy5IGXfmWB5vVOuNCpdFeFO6FvFxuOetYed8RtkhwD
c7tsuuxPVIc/MWehAo966tNvq7EFgnRC544SxPxHTjpqLfVThKBPReziTw9utgKn
NpizbrNgCtRd/WljZzkZKGQG6pr5eZqmxOp/+b7fwBgFplSGa3S2TATLqTAyzX1p
rUQWgLuTMmOKSKymBhnm0hXI3Y6X
-----END CERTIFICATE-----
