Certificate:
    Data:
        Version: 3 (0x2)
        Serial Number: 4132 (0x1024)
    Signature Algorithm: sha256WithRSAEncryption
        Issuer: C=91, ST=Hubei, L=WUhan, O=HUST, OU=CSE, CN=yzs/emailAddress=2841329980@qq.com
        Validity
            Not Before: Jun 11 14:32:42 2023 GMT
            Not After : Jun  8 14:32:42 2033 GMT
        Subject: C=91, ST=Wuhan, L=Hubei, O=WHU, OU=CS, CN=rebibabo/emailAddress=2328738146@qq.com
        Subject Public Key Info:
            Public Key Algorithm: rsaEncryption
                Public-Key: (2048 bit)
                Modulus:
                    00:99:e4:dd:d5:02:04:28:97:58:6e:7a:f3:9c:bb:
                    83:96:37:3d:06:d8:51:f7:07:c8:55:08:a0:d1:89:
                    8f:35:be:2d:7a:60:6d:3a:73:82:57:11:c2:dd:af:
                    6f:aa:c6:58:99:cb:27:36:e4:79:ce:75:88:8f:f5:
                    7f:e5:b9:5b:e2:b6:b3:00:ba:a3:60:86:c3:60:f5:
                    93:29:47:fa:8b:ce:73:d8:a0:6e:37:c8:0a:b6:a6:
                    21:19:cd:89:20:64:e6:70:af:ba:15:a5:8a:7c:4b:
                    b2:7f:c7:d1:bd:b3:12:e4:d4:d2:fa:c7:e3:ab:c1:
                    5a:4c:79:98:84:5f:ec:cc:f8:be:9f:42:31:ef:61:
                    43:0a:78:08:d7:45:3f:83:5b:9c:d2:1b:3a:30:61:
                    4e:71:3b:35:f3:89:e8:b5:d3:20:66:9c:f4:5d:93:
                    49:ae:15:96:3f:25:32:5a:2a:fb:6f:7f:80:74:82:
                    12:83:2b:fa:0f:96:41:ab:30:48:c0:98:8c:4f:0e:
                    cb:8e:2c:38:f3:e2:1f:1d:2a:4c:5d:05:54:35:13:
                    62:90:0b:83:30:c0:c7:35:c4:01:21:3f:68:fb:3d:
                    60:98:ce:07:c6:12:6e:7b:6d:45:a6:4b:ab:f8:f7:
                    83:37:28:ee:36:79:d6:cf:d7:2d:58:63:fe:44:70:
                    94:fd
                Exponent: 65537 (0x10001)
        X509v3 extensions:
            X509v3 Basic Constraints: 
                CA:FALSE
            Netscape Comment: 
                OpenSSL Generated Certificate
            X509v3 Subject Key Identifier: 
                27:E1:86:F6:AE:25:23:9C:CD:95:3A:A0:CA:47:C5:13:91:D2:CF:3C
            X509v3 Authority Key Identifier: 
                keyid:6D:5A:65:E5:17:53:6D:E2:A5:E3:96:C3:1F:DE:51:BE:B7:08:88:9D

    Signature Algorithm: sha256WithRSAEncryption
         6f:e1:6a:ad:07:9c:73:32:67:d5:ac:40:e7:db:95:8e:4a:b8:
         54:43:41:ff:6d:00:b5:e6:e4:a0:9b:78:f5:8a:15:47:7a:ca:
         70:b2:cd:1c:50:e0:42:77:0d:73:01:97:a1:21:1d:e6:09:18:
         1c:e9:71:6b:19:c6:a8:a0:99:05:c6:e6:73:68:dc:89:de:d3:
         e3:fa:24:54:a3:bd:6a:d2:ee:ff:6a:72:d0:29:47:0f:4d:61:
         a9:88:24:91:b4:c8:6d:82:25:e6:be:52:2e:04:9a:86:93:74:
         80:7d:25:05:58:0c:21:0b:52:0e:86:9e:96:1c:1d:b2:31:c6:
         e1:8f:1a:3a:8b:c0:34:ae:98:bd:7a:9f:d2:e4:a7:d6:f4:d0:
         72:13:01:82:83:4b:c6:fe:16:62:fd:6a:97:be:5c:8a:be:29:
         6c:15:38:95:23:e0:c3:0f:c4:ca:90:cd:29:c7:05:2b:58:33:
         6c:f3:4c:dc:26:19:ef:ef:53:34:b9:f3:d0:4a:e1:1f:f2:d5:
         78:c4:24:22:2b:50:d2:ed:ce:20:80:ba:aa:7f:f9:69:7a:7a:
         21:5e:4c:12:c9:ad:bc:97:7e:18:67:9c:86:9c:21:89:f3:32:
         b7:94:9d:b7:79:95:c9:4c:0e:b8:71:1e:76:81:af:44:1b:98:
         ce:04:3e:90
-----BEGIN CERTIFICATE-----
MIID7jCCAtagAwIBAgICECQwDQYJKoZIhvcNAQELBQAwejELMAkGA1UEBhMCOTEx
DjAMBgNVBAgMBUh1YmVpMQ4wDAYDVQQHDAVXVWhhbjENMAsGA1UECgwESFVTVDEM
MAoGA1UECwwDQ1NFMQwwCgYDVQQDDAN5enMxIDAeBgkqhkiG9w0BCQEWETI4NDEz
Mjk5ODBAcXEuY29tMB4XDTIzMDYxMTE0MzI0MloXDTMzMDYwODE0MzI0MlowfTEL
MAkGA1UEBhMCOTExDjAMBgNVBAgMBVd1aGFuMQ4wDAYDVQQHDAVIdWJlaTEMMAoG
A1UECgwDV0hVMQswCQYDVQQLDAJDUzERMA8GA1UEAwwIcmViaWJhYm8xIDAeBgkq
hkiG9w0BCQEWETIzMjg3MzgxNDZAcXEuY29tMIIBIjANBgkqhkiG9w0BAQEFAAOC
AQ8AMIIBCgKCAQEAmeTd1QIEKJdYbnrznLuDljc9BthR9wfIVQig0YmPNb4temBt
OnOCVxHC3a9vqsZYmcsnNuR5znWIj/V/5blb4razALqjYIbDYPWTKUf6i85z2KBu
N8gKtqYhGc2JIGTmcK+6FaWKfEuyf8fRvbMS5NTS+sfjq8FaTHmYhF/szPi+n0Ix
72FDCngI10U/g1uc0hs6MGFOcTs184notdMgZpz0XZNJrhWWPyUyWir7b3+AdIIS
gyv6D5ZBqzBIwJiMTw7Ljiw48+IfHSpMXQVUNRNikAuDMMDHNcQBIT9o+z1gmM4H
xhJue21Fpkur+PeDNyjuNnnWz9ctWGP+RHCU/QIDAQABo3sweTAJBgNVHRMEAjAA
MCwGCWCGSAGG+EIBDQQfFh1PcGVuU1NMIEdlbmVyYXRlZCBDZXJ0aWZpY2F0ZTAd
BgNVHQ4EFgQUJ+GG9q4lI5zNlTqgykfFE5HSzzwwHwYDVR0jBBgwFoAUbVpl5RdT
beKl45bDH95RvrcIiJ0wDQYJKoZIhvcNAQELBQADggEBAG/haq0HnHMyZ9WsQOfb
lY5KuFRDQf9tALXm5KCbePWKFUd6ynCyzRxQ4EJ3DXMBl6EhHeYJGBzpcWsZxqig
mQXG5nNo3Ine0+P6JFSjvWrS7v9qctApRw9NYamIJJG0yG2CJea+Ui4EmoaTdIB9
JQVYDCELUg6GnpYcHbIxxuGPGjqLwDSumL16n9Lkp9b00HITAYKDS8b+FmL9ape+
XIq+KWwVOJUj4MMPxMqQzSnHBStYM2zzTNwmGe/vUzS589BK4R/y1XjEJCIrUNLt
ziCAuqp/+Wl6eiFeTBLJrbyXfhhnnIacIYnzMreUnbd5lclMDrhxHnaBr0QbmM4E
PpA=
-----END CERTIFICATE-----
