Certificate:
    Data:
        Version: 3 (0x2)
        Serial Number: 4133 (0x1025)
    Signature Algorithm: sha256WithRSAEncryption
        Issuer: C=91, ST=Hubei, L=Wuhna, O=HUST, OU=CSE, CN=yzs/emailAddress=2841329980@qq.com
        Validity
            Not Before: Jun 11 14:34:37 2023 GMT
            Not After : Jun  8 14:34:37 2033 GMT
        Subject: C=91, ST=Hubei, L=WUhan, O=WHU, OU=CSW, CN=43/emailAddress=232738146@QQ.COM
        Subject Public Key Info:
            Public Key Algorithm: rsaEncryption
                Public-Key: (2048 bit)
                Modulus:
                    00:99:2e:f1:53:8b:8c:80:fa:b4:1a:5a:4b:be:0c:
                    05:24:24:cd:5d:37:50:6f:84:c9:c3:a4:f3:7f:1c:
                    5b:0a:cc:f3:a8:15:2e:ea:a6:8c:26:97:68:2c:ef:
                    89:9a:b5:8d:a2:56:e5:a1:1b:fc:26:ab:76:e0:9e:
                    e5:99:41:ad:1d:86:ca:fe:02:85:75:17:c1:b6:2b:
                    73:9a:38:f0:66:78:94:1f:bc:09:d4:59:1e:8a:83:
                    1e:23:c9:65:55:2e:8c:27:ea:36:2b:c6:b5:0f:d3:
                    a1:74:74:dd:90:4f:1d:4b:60:55:72:62:1f:79:53:
                    3b:90:67:2f:35:cc:d7:d6:81:71:63:df:b9:bf:c1:
                    d8:33:73:76:4a:57:90:c5:ef:19:88:96:e5:6e:b4:
                    94:0a:1c:30:db:b2:c8:08:b4:2b:56:0e:fc:26:38:
                    a3:84:11:70:96:2b:a7:be:55:a5:e2:af:98:a9:76:
                    4a:25:81:34:b4:22:e8:be:e2:1d:2e:1d:8c:35:d9:
                    ab:78:6c:f3:8d:f0:d6:70:ce:dd:49:c5:5e:93:a8:
                    0d:e9:8a:b9:f4:c6:c6:54:08:d2:d5:df:2a:d5:66:
                    c6:76:eb:46:a8:90:e6:8f:f7:3e:91:f6:a8:48:b5:
                    55:28:8b:21:79:1c:13:40:09:7a:01:d9:90:30:89:
                    f7:0f
                Exponent: 65537 (0x10001)
        X509v3 extensions:
            X509v3 Basic Constraints: 
                CA:FALSE
            Netscape Comment: 
                OpenSSL Generated Certificate
            X509v3 Subject Key Identifier: 
                D7:9A:14:34:C2:7A:14:49:ED:E0:04:77:DA:7B:7E:CB:FA:5F:DE:3C
            X509v3 Authority Key Identifier: 
                keyid:45:5C:AE:6A:66:59:FB:0E:D0:EA:DC:72:8E:A5:5F:4B:A2:A3:D9:14

    Signature Algorithm: sha256WithRSAEncryption
         8c:1e:cb:76:32:8d:1f:a9:9c:bb:a6:49:e5:5d:36:58:c2:79:
         07:96:b3:40:6a:67:7e:a9:26:de:59:a8:50:15:9d:6d:a3:76:
         03:b7:68:47:d6:aa:39:09:8c:9f:64:53:d5:23:a2:3d:ed:40:
         dc:dd:d5:98:85:6f:52:33:df:27:16:99:2a:e0:4e:08:1e:a4:
         19:ad:95:36:67:89:84:11:56:55:60:83:65:31:8c:10:ed:4a:
         d4:e5:c1:d7:f5:f8:9f:b2:b1:90:08:56:75:2f:ee:db:53:4b:
         01:9f:d5:f7:6c:32:65:83:46:b4:6c:a6:39:17:44:2d:15:c3:
         1f:d7:43:39:1a:a0:d9:9d:d0:2b:8c:d4:7d:e1:0c:ea:f9:8f:
         49:00:62:8d:86:39:03:3c:a3:6a:f9:be:ff:fe:7d:a1:70:39:
         95:02:8d:20:74:ae:59:1a:c1:da:95:67:f3:16:7e:ae:49:66:
         6c:6d:7a:71:a0:9c:43:45:57:a4:b4:fe:5b:6d:25:74:7a:30:
         b3:23:25:4b:4c:99:2a:3a:e8:a0:2d:b1:22:bc:cc:d1:d0:ae:
         40:8f:3e:d2:c4:24:40:be:11:83:07:de:77:4f:d9:b4:7a:63:
         32:41:a8:68:7d:69:ba:e7:35:f2:9a:26:39:14:87:8d:c7:89:
         1b:45:7c:60
-----BEGIN CERTIFICATE-----
MIID6DCCAtCgAwIBAgICECUwDQYJKoZIhvcNAQELBQAwejELMAkGA1UEBhMCOTEx
DjAMBgNVBAgMBUh1YmVpMQ4wDAYDVQQHDAVXdWhuYTENMAsGA1UECgwESFVTVDEM
MAoGA1UECwwDQ1NFMQwwCgYDVQQDDAN5enMxIDAeBgkqhkiG9w0BCQEWETI4NDEz
Mjk5ODBAcXEuY29tMB4XDTIzMDYxMTE0MzQzN1oXDTMzMDYwODE0MzQzN1owdzEL
MAkGA1UEBhMCOTExDjAMBgNVBAgMBUh1YmVpMQ4wDAYDVQQHDAVXVWhhbjEMMAoG
A1UECgwDV0hVMQwwCgYDVQQLDANDU1cxCzAJBgNVBAMMAjQzMR8wHQYJKoZIhvcN
AQkBFhAyMzI3MzgxNDZAUVEuQ09NMIIBIjANBgkqhkiG9w0BAQEFAAOCAQ8AMIIB
CgKCAQEAmS7xU4uMgPq0GlpLvgwFJCTNXTdQb4TJw6TzfxxbCszzqBUu6qaMJpdo
LO+JmrWNolbloRv8Jqt24J7lmUGtHYbK/gKFdRfBtitzmjjwZniUH7wJ1FkeioMe
I8llVS6MJ+o2K8a1D9OhdHTdkE8dS2BVcmIfeVM7kGcvNczX1oFxY9+5v8HYM3N2
SleQxe8ZiJblbrSUChww27LICLQrVg78JjijhBFwliunvlWl4q+YqXZKJYE0tCLo
vuIdLh2MNdmreGzzjfDWcM7dScVek6gN6Yq59MbGVAjS1d8q1WbGdutGqJDmj/c+
kfaoSLVVKIsheRwTQAl6AdmQMIn3DwIDAQABo3sweTAJBgNVHRMEAjAAMCwGCWCG
SAGG+EIBDQQfFh1PcGVuU1NMIEdlbmVyYXRlZCBDZXJ0aWZpY2F0ZTAdBgNVHQ4E
FgQU15oUNMJ6FEnt4AR32nt+y/pf3jwwHwYDVR0jBBgwFoAURVyuamZZ+w7Q6txy
jqVfS6Kj2RQwDQYJKoZIhvcNAQELBQADggEBAIwey3YyjR+pnLumSeVdNljCeQeW
s0BqZ36pJt5ZqFAVnW2jdgO3aEfWqjkJjJ9kU9Ujoj3tQNzd1ZiFb1Iz3ycWmSrg
TggepBmtlTZniYQRVlVgg2UxjBDtStTlwdf1+J+ysZAIVnUv7ttTSwGf1fdsMmWD
RrRspjkXRC0Vwx/XQzkaoNmd0CuM1H3hDOr5j0kAYo2GOQM8o2r5vv/+faFwOZUC
jSB0rlkawdqVZ/MWfq5JZmxtenGgnENFV6S0/lttJXR6MLMjJUtMmSo66KAtsSK8
zNHQrkCPPtLEJEC+EYMH3ndP2bR6YzJBqGh9abrnNfKaJjkUh43HiRtFfGA=
-----END CERTIFICATE-----
