Certificate:
    Data:
        Version: 3 (0x2)
        Serial Number: 4134 (0x1026)
    Signature Algorithm: sha256WithRSAEncryption
        Issuer: C=91, ST=Hubei, L=Wuhna, O=HUST, OU=CSE, CN=yzs/emailAddress=2841329980@qq.com
        Validity
            Not Before: Jun 11 14:34:40 2023 GMT
            Not After : Jun  8 14:34:40 2033 GMT
        Subject: C=91, ST=hUBEI, L=HUST, O=HUST, OU=hust, CN=rebibabo/emailAddress=2328738146@qq.com
        Subject Public Key Info:
            Public Key Algorithm: rsaEncryption
                Public-Key: (2048 bit)
                Modulus:
                    00:c6:3f:9d:1b:08:fc:3b:19:ad:8f:0c:20:94:07:
                    bd:5e:62:2d:b7:80:91:5e:e2:c0:22:20:7f:74:6c:
                    51:ca:9b:69:72:91:7d:f2:0c:e7:2e:40:ab:04:c2:
                    08:d2:b2:9a:84:4c:63:5c:ea:d4:77:c6:2d:8b:c3:
                    bc:4a:b6:07:dd:79:31:53:af:f1:73:4e:fe:d6:40:
                    40:6d:ce:77:e7:ed:13:97:8d:7f:28:d6:88:28:08:
                    ca:4d:1f:38:92:06:71:e6:b1:44:df:6f:f4:7b:08:
                    c4:24:9d:cf:48:f7:89:24:9e:f2:85:6e:24:81:6e:
                    71:9a:dd:6d:95:69:2f:c5:ef:0b:eb:03:0c:00:8c:
                    d1:42:ed:00:ca:86:1a:d2:cd:63:a8:dd:e8:21:a5:
                    1f:78:21:af:db:ce:a1:ca:82:57:d0:07:1d:0b:33:
                    95:71:61:32:d9:ec:2e:b9:99:69:6e:59:e1:b8:5e:
                    f4:18:6f:26:f1:6c:75:c3:38:2c:08:a1:40:34:26:
                    f9:f1:13:86:2e:57:58:a7:a5:2b:7d:e7:e2:1a:5c:
                    fd:ad:9c:8c:ca:ca:1e:9f:82:b2:f9:8b:d6:06:b9:
                    3e:9f:6e:0b:df:96:85:4d:e5:24:95:c8:ec:8f:d1:
                    2c:e1:be:9e:78:5c:8b:a9:44:19:43:bf:cc:b3:f7:
                    82:0f
                Exponent: 65537 (0x10001)
        X509v3 extensions:
            X509v3 Basic Constraints: 
                CA:FALSE
            Netscape Comment: 
                OpenSSL Generated Certificate
            X509v3 Subject Key Identifier: 
                11:4C:26:57:E7:9D:EA:32:02:25:CB:23:6B:AD:90:C1:B9:EE:30:9E
            X509v3 Authority Key Identifier: 
                keyid:45:5C:AE:6A:66:59:FB:0E:D0:EA:DC:72:8E:A5:5F:4B:A2:A3:D9:14

    Signature Algorithm: sha256WithRSAEncryption
         7c:25:29:b5:e8:95:c9:fc:81:90:5b:6b:9e:03:f6:dd:4d:fb:
         5f:74:98:d1:21:30:3c:16:13:bf:06:3f:37:e6:ea:72:12:d6:
         64:f3:ca:3a:a7:f9:f2:f0:3a:e9:7a:45:f0:c5:2d:31:2c:9b:
         cf:2d:6e:20:17:27:81:44:44:e2:11:70:42:5a:bb:f6:0c:6b:
         a4:9e:ee:75:ba:c2:3b:41:17:93:a5:3f:5c:60:6b:ff:1f:71:
         73:2c:e9:87:22:a2:dc:03:90:ae:b7:6b:18:1e:43:ba:e7:e4:
         62:64:9c:6d:d5:91:a9:70:d9:c8:b4:15:6f:2b:e5:a9:ef:6d:
         d8:85:56:c0:97:eb:2c:c9:ff:a7:ce:63:8e:28:2a:ef:83:fc:
         80:2e:99:a2:15:eb:10:b6:1a:10:3b:be:2e:de:80:f8:b4:4e:
         78:ac:5a:81:25:3e:aa:0f:e0:ac:3c:a6:71:e4:1d:c7:80:07:
         96:4c:1a:cc:62:68:eb:f1:7b:3b:e7:1a:36:8a:76:17:93:a1:
         00:98:02:b1:dc:38:e3:7c:4c:24:0a:2d:54:8c:d4:52:6c:ef:
         41:8d:22:0e:60:38:93:43:cd:5d:ac:2f:4e:39:9c:2c:33:fb:
         9a:35:47:09:74:b1:dc:26:1f:ba:5d:3e:b4:b8:a2:91:37:be:
         61:87:87:87
-----BEGIN CERTIFICATE-----
MIID8DCCAtigAwIBAgICECYwDQYJKoZIhvcNAQELBQAwejELMAkGA1UEBhMCOTEx
DjAMBgNVBAgMBUh1YmVpMQ4wDAYDVQQHDAVXdWhuYTENMAsGA1UECgwESFVTVDEM
MAoGA1UECwwDQ1NFMQwwCgYDVQQDDAN5enMxIDAeBgkqhkiG9w0BCQEWETI4NDEz
Mjk5ODBAcXEuY29tMB4XDTIzMDYxMTE0MzQ0MFoXDTMzMDYwODE0MzQ0MFowfzEL
MAkGA1UEBhMCOTExDjAMBgNVBAgMBWhVQkVJMQ0wCwYDVQQHDARIVVNUMQ0wCwYD
VQQKDARIVVNUMQ0wCwYDVQQLDARodXN0MREwDwYDVQQDDAhyZWJpYmFibzEgMB4G
CSqGSIb3DQEJARYRMjMyODczODE0NkBxcS5jb20wggEiMA0GCSqGSIb3DQEBAQUA
A4IBDwAwggEKAoIBAQDGP50bCPw7Ga2PDCCUB71eYi23gJFe4sAiIH90bFHKm2ly
kX3yDOcuQKsEwgjSspqETGNc6tR3xi2Lw7xKtgfdeTFTr/FzTv7WQEBtznfn7ROX
jX8o1ogoCMpNHziSBnHmsUTfb/R7CMQknc9I94kknvKFbiSBbnGa3W2VaS/F7wvr
AwwAjNFC7QDKhhrSzWOo3eghpR94Ia/bzqHKglfQBx0LM5VxYTLZ7C65mWluWeG4
XvQYbybxbHXDOCwIoUA0JvnxE4YuV1inpSt95+IaXP2tnIzKyh6fgrL5i9YGuT6f
bgvfloVN5SSVyOyP0Szhvp54XIupRBlDv8yz94IPAgMBAAGjezB5MAkGA1UdEwQC
MAAwLAYJYIZIAYb4QgENBB8WHU9wZW5TU0wgR2VuZXJhdGVkIENlcnRpZmljYXRl
MB0GA1UdDgQWBBQRTCZX553qMgIlyyNrrZDBue4wnjAfBgNVHSMEGDAWgBRFXK5q
Zln7DtDq3HKOpV9LoqPZFDANBgkqhkiG9w0BAQsFAAOCAQEAfCUpteiVyfyBkFtr
ngP23U37X3SY0SEwPBYTvwY/N+bqchLWZPPKOqf58vA66XpF8MUtMSybzy1uIBcn
gURE4hFwQlq79gxrpJ7udbrCO0EXk6U/XGBr/x9xcyzphyKi3AOQrrdrGB5Duufk
YmScbdWRqXDZyLQVbyvlqe9t2IVWwJfrLMn/p85jjigq74P8gC6ZohXrELYaEDu+
Lt6A+LROeKxagSU+qg/grDymceQdx4AHlkwazGJo6/F7O+caNop2F5OhAJgCsdw4
43xMJAotVIzUUmzvQY0iDmA4k0PNXawvTjmcLDP7mjVHCXSx3CYful0+tLiikTe+
YYeHhw==
-----END CERTIFICATE-----
